(dp0
Vyellow
p1
I2656
sVfour
p2
I652
sVDoes
p3
I2657
sVhanging
p4
I3227
sVaggression
p5
I4321
sVbriskness
p6
I4322
sVlooking
p7
I297
sVeligible
p8
I2658
sVsnowing
p9
I2659
sVscold
p10
I4323
sVunanswered
p11
I4324
sVlord
p12
I3229
sVeligibly
p13
I4325
sVmeadows
p14
I2660
sVsinking
p15
I1967
sV<eos>Men
p16
I3230
sVstipulate
p17
I4326
sV<eos>Woodhouse
p18
I2661
sVuncertain
p19
I4327
sVstabbed
p20
I4328
sVbringing
p21
I1220
sVdisturb
p22
I3231
sVrecollections
p23
I1968
sVprize
p24
I2241
sVwoods
p25
I4329
sV<eos>by
p26
I4330
sV_answer_
p27
I4331
sVtired
p28
I927
sVcordially
p29
I2662
sVpreface
p30
I4332
sVpulse
p31
I4333
sVtires
p32
I4335
sVelegant
p33
I754
sVsecond
p34
I607
sVconsenting
p35
I3232
sVerrors
p36
I3233
sVcontributed
p37
I4336
sVincreasing
p38
I1598
sVinducement
p39
I2242
sVhero
p40
I4337
sVintellects
p41
I3234
sVinterrupting
p42
I4338
sVhere
p43
I186
sVLiable
p44
I4339
sVhers
p45
I928
sVnatured
p46
I1780
sVsubstance
p47
I1781
sVunwillingness
p48
I2663
sVreports
p49
I4340
sVmilitary
p50
I4341
sVcriticism
p51
I4342
sV_would_
p52
I4343
sVdivide
p53
I4344
sVowed
p54
I2306
sVexplained
p55
I3235
sVcivilities
p56
I1782
sVbrought
p57
I407
sVcherishing
p58
I4346
sVspoke
p59
I504
sV<eos>turning
p60
I4347
sVimpartiality
p61
I4348
sVmusic
p62
I729
sVtherefore
p63
I353
sVstrike
p64
I3236
sVsuccessful
p65
I4349
sVbrings
p66
I2243
sVwhirling
p67
I4350
sVhurt
p68
I1969
sVglass
p69
I3237
sVmidst
p70
I1783
sVhold
p71
I1129
sVcircumstances
p72
I702
sVlocked
p73
I4351
sVpursue
p74
I4352
sVaccomplishment
p75
I4353
sV<eos>FINIS
p76
I4354
sVexample
p77
I1970
sVmisfortunes
p78
I4355
sVvanities
p79
I4356
sV<eos>Better
p80
I2244
sVLa
p81
I3238
sVunjust
p82
I1784
sVcaution
p83
I1130
sVwant
p84
I273
sVreprove
p85
I4357
sVabsolute
p86
I3239
sVtravel
p87
I1785
sVfeature
p88
I2245
sVhow
p89
I110
sVhot
p90
I1221
sVhesitatingly
p91
I3240
sVhop
p92
I4358
sVpreferable
p93
I3242
sVdignified
p94
I4359
sVA
p95
I653
sVBates
p96
I167
sVbeauty
p97
I680
sV<eos>An
p98
I1599
sV<eos>Am
p99
I4360
sVCharming
p100
I7163
sV<eos>Ah
p101
I2664
sVwrong
p102
I525
sV<eos>At
p103
I629
sV<eos>As
p104
I543
sVdestined
p105
I3243
sVunselfish
p106
I4361
sVendeavoured
p107
I2274
sV<eos>Walk
p108
I7011
sVpresiding
p109
I4363
sVwink
p110
I4364
sVAnother
p111
I4365
sVwind
p112
I2246
sVwine
p113
I1786
sVEven
p114
I3244
sVwelcomed
p115
I3245
sVconcurrence
p116
I2247
sVenquiring
p117
I4366
sVDonwell
p118
I489
sVrewarded
p119
I4368
sVHis
p120
I1222
sVfit
p121
I1313
sVheretofore
p122
I4369
sVfix
p123
I1600
sVoccupations
p124
I5483
sVSmiths
p125
I4370
sVdistinguishing
p126
I1787
sVadmirable
p127
I4371
sVeasier
p128
I2666
sVenrich
p129
I3246
sVeducating
p130
I4372
sVeffects
p131
I2248
sVsixteen
p132
I1971
sVsilver
p133
I3334
sVscholar
p134
I4375
sVrumour
p135
I4376
sV<eos>that
p136
I1788
sV_with_
p137
I4377
sVblushes
p138
I4378
sVarrow
p139
I4379
sVblushed
p140
I1601
sVpreceded
p141
I4380
sVwhim
p142
I4381
sVseries
p143
I2667
sVblinder
p144
I4382
sV--.'
p145
I4383
sVturnip
p146
I4384
sVprecedes
p147
I4385
sVfortnight
p148
I963
sVdispleased
p149
I1819
sVallay
p150
I4387
sVblinded
p151
I2249
sVbackgammon
p152
I3247
sVborne
p153
I1131
sVmisfortune
p154
I1789
sVforwarding
p155
I4388
sVexcepting
p156
I1437
sVre
p157
I3248
sVencourage
p158
I2668
sVadapt
p159
I3249
sVfoundation
p160
I2669
sVassured
p161
I964
sVthreatened
p162
I2250
sV_her_
p163
I1011
sVWhat
p164
I438
sVsheet
p165
I5369
sVestimate
p166
I4390
sVcontrition
p167
I4391
sVknit
p168
I4392
sVuniversally
p169
I2670
sVenormous
p170
I4394
sVate
p171
I3251
sVdisturbed
p172
I1790
sVspeedy
p173
I4395
sVtempting
p174
I4396
sVplayfully
p175
I3252
sVclamorous
p176
I4397
sVhear
p177
I234
sVservice
p178
I730
sVengagement
p179
I544
sVneeded
p180
I3253
sV_say_
p181
I4398
sVmaster
p182
I1132
sVbitter
p183
I2671
sVlisten
p184
I1314
sVpositively
p185
I1438
sV).--
p186
I4399
sVBeautiful
p187
I4400
sVexultation
p188
I2251
sVtree
p189
I2672
sVshower
p190
I4849
sVidle
p191
I2673
sVexclaimed
p192
I1315
sVendure
p193
I1223
sVseminary
p194
I4401
sVfeeling
p195
I384
sVfestivity
p196
I6939
sVexploring
p197
I1224
sVhumouredly
p198
I4403
sVshrubs
p199
I3255
sV<eos>_Some_
p200
I4404
sVdozen
p201
I2674
sVThen
p202
I1466
sVwholesome
p203
I3257
sVcope
p204
I4405
sVeagerly
p205
I1225
sVrecommended
p206
I1791
sVamusing
p207
I1792
sVThey
p208
I838
sVimprudent
p209
I1972
sVshall
p210
I133
sVWish
p211
I4406
sVobject
p212
I526
sVmouth
p213
I1973
sVletter
p214
I216
sVretaining
p215
I4407
sVmorality
p216
I4408
sVKingston
p217
I1793
sV<eos>brought
p218
I4409
sVcame
p219
I209
sVsaying
p220
I413
sVmeetings
p221
I2252
sVundue
p222
I4410
sVtempted
p223
I1226
sV<eos>Remember
p224
I3258
sVlessons
p225
I4411
sVtouches
p226
I4412
sVbusy
p227
I1012
sVvexations
p228
I4413
sVunwholesome
p229
I2446
sVcousins
p230
I3259
sVtouched
p231
I2676
sVrich
p232
I1066
sVheartily
p233
I2021
sVemphatically
p234
I4415
sVChurchills
p235
I1133
sVterrors
p236
I4416
sVpocket
p237
I4417
sV<eos>Suppose
p238
I4418
sValtogether
p239
I839
sVX
p240
I2677
sVnicely
p241
I2678
sVboarder
p242
I2253
sVXVII
p243
I2679
sVadherence
p244
I4419
sVhasten
p245
I4420
sVfair
p246
I608
sVexpediency
p247
I2680
sV_You_
p248
I4422
sVunexpectedly
p249
I4423
sVresult
p250
I1974
sVfail
p251
I2254
sVJohn
p252
I266
sVbest
p253
I267
sVavert
p254
I4424
sVplayfulness
p255
I2681
sVsolicitude
p256
I1134
sVloth
p257
I5009
sVpreserve
p258
I3261
sVdiscipline
p259
I3262
sVmen
p260
I731
sVextend
p261
I4426
sVnature
p262
I505
sVtwinkling
p263
I4428
sV_felt_
p264
I4429
sV<eos>When
p265
I576
sVdefiance
p266
I3263
sVdexterously
p267
I4430
sVdebt
p268
I4431
sVpity
p269
I755
sVaccident
p270
I4432
sVsacrificing
p271
I4433
sVdisdain
p272
I2255
sVcountry
p273
I809
sVdemanded
p274
I4434
sVplanned
p275
I3264
sVasked
p276
I506
sVpre
p277
I4435
sVmortified
p278
I1439
sVvain
p279
I780
sVproperest
p280
I4436
sV_small_
p281
I4437
sVwearying
p282
I4438
sV<eos>aye
p283
I4439
sVparley
p284
I3266
sVunion
p285
I2256
sVremained
p286
I1086
sVsubside
p287
I3474
sV.
p288
I1
sVmuch
p289
I61
sVprivilege
p290
I2257
sVlife
p291
I280
sVretrospect
p292
I4442
sVconfinement
p293
I3267
sVdoubts
p294
I2258
sVevasions
p295
I4443
sVworked
p296
I4444
sVdoth
p297
I4445
sVdiverted
p298
I3268
sV<eos>Where
p299
I1227
sV<eos>South
p300
I4446
sVcontingencies
p301
I4447
sVemploy
p302
I1602
sV?--"
p303
I4448
sVmisconstrued
p304
I4449
sVunfelt
p305
I4450
sVCampbell
p306
I408
sV?--(
p307
I4451
sVGoddard
p308
I414
sVremembering
p309
I3269
sVcongratulation
p310
I3270
sVplayed
p311
I1603
sVplayer
p312
I3271
sVeighteen
p313
I3272
sVanticipating
p314
I4452
sVtrusted
p315
I1604
sVseverity
p316
I4453
sVthings
p317
I365
sVwoollen
p318
I4454
sVany
p319
I42
sVhaphazard
p320
I4457
sVharmony
p321
I3273
sVprincipals
p322
I4458
sVexertion
p323
I1975
sVfairly
p324
I1605
sVboiled
p325
I1976
sV<eos>Compliments
p326
I4459
sVconsents
p327
I4460
sVsupper
p328
I1440
sValtar
p329
I4797
sV<eos>Don
p330
I3274
sVsmallness
p331
I6396
sV_blunder_
p332
I4462
sVcoldness
p333
I1606
sVveils
p334
I4463
sVopinions
p335
I1441
sVoutlived
p336
I4464
sVThank
p337
I1135
sVabsurdities
p338
I4465
sVdisguise
p339
I4466
sVexclaiming
p340
I3275
sVsucceeding
p341
I2259
sVprevious
p342
I1795
sVenters
p343
I4467
sVdialogues
p344
I4468
sVease
p345
I879
sVhad
p346
I18
sVhay
p347
I4469
sVdisparity
p348
I1978
sVinnocent
p349
I5151
sVhas
p350
I119
sVhat
p351
I4470
sVelevation
p352
I3276
sVdisagreement
p353
I4471
sVpossible
p354
I256
sVThree
p355
I2682
sVunequivocally
p356
I4472
sVpossibly
p357
I880
sVchuse
p358
I781
sVbirth
p359
I1607
sVshadow
p360
I3277
sVdesire
p361
I4473
sVLords
p362
I3278
sVseaside
p363
I4474
sVremind
p364
I4475
sVmisled
p365
I3279
sVstept
p366
I4476
sVsteps
p367
I1979
sVprologue
p368
I4477
sV<eos>Between
p369
I4478
sV_broke_
p370
I4479
sVeffusion
p371
I3280
sVattorney
p372
I4480
sVright
p373
I274
sVold
p374
I279
sVcrowd
p375
I1443
sVpeople
p376
I236
sVeasy
p377
I712
sVsure
p378
I134
sVcreep
p379
I4481
sVenemies
p380
I4482
sV<eos>_Perfection_
p381
I4483
sVfor
p382
I24
sVbottom
p383
I2683
sVwitty
p384
I3281
sVsummoned
p385
I4484
sVpondered
p386
I2684
sVpalatable
p387
I4485
sVextenuation
p388
I4486
sVlosing
p389
I1980
sVmoralised
p390
I4487
sVThink
p391
I4488
sVshaken
p392
I1981
sVSuckling
p393
I965
sVrestlessness
p394
I2685
sV<eos>Miss
p395
I409
sVgrievously
p396
I4489
sVrecollect
p397
I881
sVdespair
p398
I1982
sVslightly
p399
I2686
sVraised
p400
I1983
sVScotland
p401
I4490
sVrespectably
p402
I4491
sVarms
p403
I3792
sVrespectable
p404
I966
sVbeings
p405
I3282
sVwrap
p406
I4492
sVAlderneys
p407
I4493
sVwaits
p408
I4494
sVsupport
p409
I1608
sVconstantly
p410
I1609
sVavail
p411
I4495
sVresulted
p412
I4496
sVhappy
p413
I197
sVoffer
p414
I882
sVforming
p415
I1610
sVtalents
p416
I1444
sV_Bath_
p417
I4497
sVcongratulations
p418
I1796
sVSir
p419
I3283
sVlater
p420
I2153
sVdisgrace
p421
I3241
sV<eos>Neither
p422
I2687
sVSix
p423
I4498
sV';
p424
I4499
sVsoothe
p425
I5409
sVexist
p426
I3284
sVaccounting
p427
I4500
sVeffusions
p428
I4501
sVprotested
p429
I3285
sVfloor
p430
I4502
sVuttered
p431
I4503
sVgrammatical
p432
I4504
sVconferring
p433
I4505
sVmomentary
p434
I1984
sVsmell
p435
I4506
sVE
p436
I1445
sVtransported
p437
I4507
sVdeathbed
p438
I4508
sVintent
p439
I2688
sV_Philip_
p440
I4509
sVtime
p441
I106
sVpush
p442
I4510
sVgown
p443
I2260
sVnow
p444
I108
sVwhoever
p445
I3286
sV:'
p446
I4511
sV:"
p447
I4512
sVchair
p448
I1446
sV<eos>what
p449
I3287
sVinhabited
p450
I5900
sVrousing
p451
I3288
sVindolent
p452
I4514
sVvex
p453
I4515
sVrecurrence
p454
I4516
sV<eos>allow
p455
I4517
sV<eos>Something
p456
I1985
sVfatigues
p457
I4518
sVchoice
p458
I1447
sVgloomy
p459
I4519
sVrapturous
p460
I4520
sVbustle
p461
I1448
sVstays
p462
I4521
sVfullest
p463
I4522
sVexact
p464
I2261
sVminute
p465
I1067
sVtear
p466
I2262
sVleave
p467
I460
sVsettle
p468
I1316
sVspeculation
p469
I2263
sVprevent
p470
I967
sVoccurrence
p471
I2689
sVsigh
p472
I883
sVsign
p473
I2828
sVlengthened
p474
I4524
sV<eos>Concession
p475
I4525
sVeducate
p476
I4526
sVproprieties
p477
I4527
sVunfeelingly
p478
I4528
sVfreaks
p479
I4529
sVdeadening
p480
I4530
sVfalling
p481
I1986
sVground
p482
I1347
sVTrue
p483
I2690
sVMe
p484
I1987
sVEmma
p485
I45
sVhonour
p486
I782
sVfuneral
p487
I4532
sVunderstanding
p488
I732
sVcontemplate
p489
I4533
sVyards
p490
I1988
sVMr
p491
I33
sValone
p492
I609
sValong
p493
I2264
sVMy
p494
I447
sVbrilliant
p495
I1797
sVcoxcomb
p496
I2691
sVstudied
p497
I3289
sVwherever
p498
I1989
sVcommonly
p499
I4534
sVaccomplished
p500
I1136
sVconcealed
p501
I3290
sVlove
p502
I210
sVprefer
p503
I1990
sVAbbey
p504
I703
sVXVIII
p505
I3291
sVunmarked
p506
I5903
sVAugust
p507
I3292
sVworking
p508
I1991
sVpositive
p509
I2265
sVangry
p510
I929
sVpredictions
p511
I4536
sVpapas
p512
I4537
sVimaginations
p513
I3293
sVvigour
p514
I4538
sVwood
p515
I6959
sVopposed
p516
I2266
sVwondering
p517
I1992
sVThose
p518
I1993
sVwicked
p519
I4539
sVintroducing
p520
I2267
sVconciliating
p521
I4540
sVafford
p522
I1994
sVsubsistence
p523
I4541
sVapparent
p524
I1229
sV<eos>His
p525
I507
sVrefrain
p526
I2268
sVapproving
p527
I2692
sVignorant
p528
I1613
sVvirtue
p529
I3294
sVbehalf
p530
I4542
sVvalued
p531
I2269
sVdeserved
p532
I1821
sVoriginally
p533
I4544
sVpretend
p534
I1449
sVMidsummer
p535
I4545
sVprivy
p536
I3295
sVinflamed
p537
I4546
sVbelieves
p538
I4547
sVvalues
p539
I4548
sVbelieved
p540
I461
sVOur
p541
I3296
sVdetached
p542
I4549
sVadmired
p543
I1450
sVparishes
p544
I4550
sVgreatcoat
p545
I4551
sVWESTON
p546
I4552
sVadmires
p547
I4553
sVallowed
p548
I527
sVevidently
p549
I1137
sVwinter
p550
I1451
sVinability
p551
I7017
sVdivided
p552
I2693
sVWho
p553
I1798
sVvainly
p554
I4554
sVthanking
p555
I2694
sVWhy
p556
I1452
sVundertook
p557
I4555
sVcavil
p558
I4556
sVspot
p559
I1995
sVexpectation
p560
I1123
sVapplications
p561
I3297
sVexplored
p562
I4557
sVdate
p563
I4558
sVsuch
p564
I71
sVrevealed
p565
I3298
sVdisagreeable
p566
I783
sVnatural
p567
I448
sVvarieties
p568
I3299
sVconscious
p569
I1317
sVordinarily
p570
I4559
sVattestation
p571
I4560
sVso
p572
I35
sVse
p573
I4561
sVTrouble
p574
I6579
sVprivation
p575
I4562
sVBarnes
p576
I4563
sVfootstep
p577
I3300
sVyears
p578
I354
sVcourse
p579
I366
sVquarrelled
p580
I4565
sVomitting
p581
I4566
sVpollards
p582
I4567
sVtendency
p583
I2270
sVsolitary
p584
I3301
sVsolace
p585
I3302
sVtroubles
p586
I4568
sVstupidity
p587
I3303
sV<eos>Intimacy
p588
I4569
sVattraction
p589
I1996
sVsuspicion
p590
I884
sVinstantly
p591
I1068
sVmodestly
p592
I4570
sVmatches
p593
I1997
sVremonstrated
p594
I4571
sVoverpowering
p595
I4572
sV<eos>She
p596
I64
sVarriving
p597
I2695
sVepithets
p598
I4573
sVreckoning
p599
I4574
sVtwilight
p600
I4575
sVmatched
p601
I4576
sV_you_
p602
I1614
sVquarter
p603
I784
sVcordiality
p604
I3304
sVsquare
p605
I4577
sVreceipt
p606
I4578
sVowing
p607
I3306
sVentering
p608
I1615
sVneighbourhood
p609
I1069
sVElizabeth
p610
I1616
sVabide
p611
I4579
sVcontained
p612
I2696
sVsuggesting
p613
I4580
sVbordering
p614
I4581
sVhairdresser
p615
I4583
sVmillion
p616
I3307
sVpossibility
p617
I1453
sVquite
p618
I109
sVdisrespect
p619
I4584
sVOffended
p620
I4585
sVcomplimenter
p621
I4586
sVbesides
p622
I1373
sVquits
p623
I4587
sVremainder
p624
I4588
sVliberally
p625
I4589
sVpatronage
p626
I4590
sV.'"
p627
I1318
sV<eos>sir
p628
I4591
sVmodest
p629
I2698
sV_The_
p630
I4592
sVcrossness
p631
I4593
sVneglect
p632
I1998
sV<eos>cried
p633
I654
sV<eos>Natural
p634
I4595
sVsaving
p635
I3308
sVproperer
p636
I4596
sVspoken
p637
I704
sVone
p638
I66
sVhabitation
p639
I4597
sVopen
p640
I470
sVawkwardnesses
p641
I4598
sVlanguish
p642
I4599
sVMonday
p643
I3804
sVvouchsafing
p644
I4601
sVindicate
p645
I4602
sVdissipate
p646
I4603
sVencourager
p647
I6976
sVlingering
p648
I4604
sVshawl
p649
I1999
sVproving
p650
I2271
sVridiculous
p651
I2272
sVrepresenting
p652
I4605
sVcompanionably
p653
I4606
sVovertaken
p654
I5911
sVdepressed
p655
I2273
sVrival
p656
I4607
sVfolly
p657
I1138
sVfuture
p658
I1013
sV_happily_
p659
I4608
sVwins
p660
I4362
sVwandering
p661
I4609
sVprospect
p662
I1139
sVaddressing
p663
I1319
sVillness
p664
I1454
sVnicer
p665
I4610
sVturned
p666
I630
sVargument
p667
I3309
sVjewels
p668
I4611
sVsad
p669
I705
sVsay
p670
I99
sVrained
p671
I4612
sVburied
p672
I3310
sVlurking
p673
I4613
sVuninterrupted
p674
I4614
sV<eos>Consider
p675
I2700
sVsaw
p676
I213
sVsat
p677
I571
sV_Woodhouse_
p678
I4615
sVfashionable
p679
I4616
sVunsuitable
p680
I3311
sV_unrequited_
p681
I4617
sVaside
p682
I2701
sVnote
p683
I733
sVintends
p684
I4618
sVtranscribed
p685
I3312
sVtake
p686
I214
sVwanting
p687
I706
sVHall
p688
I4619
sVUngrateful
p689
I4620
sValtered
p690
I2000
sVopposite
p691
I1799
sVcandidly
p692
I4621
sVknew
p693
I275
sVcompress
p694
I4622
sVremarks
p695
I4623
sVknee
p696
I4624
sVpages
p697
I4625
sVlawn
p698
I2275
sVguidable
p699
I4626
sVblockhead
p700
I4627
sVsale
p701
I3313
sVWeston
p702
I79
sVunabated
p703
I4628
sVsalt
p704
I4629
sVwalking
p705
I429
sVmurmurs
p706
I4630
sVpencilled
p707
I4631
sVimagines
p708
I4632
sVmerit
p709
I1320
sVbright
p710
I4633
sVinconsistent
p711
I4634
sVscarce
p712
I4635
sVimagined
p713
I930
sVslow
p714
I2001
sVunkind
p715
I4636
sVcloak
p716
I4637
sVtears
p717
I1455
sVgoing
p718
I217
sVoutrage
p719
I4638
sVblinds
p720
I4639
sVguarded
p721
I4640
sVrejoiced
p722
I3314
sV_letting_
p723
I4641
sVXII
p724
I3315
sVXIV
p725
I3316
sVXIX
p726
I4642
sVHaving
p727
I4643
sVkeenly
p728
I4644
sVartist
p729
I4645
sVborrow
p730
I4646
sVliable
p731
I2276
sVwhere
p732
I314
sVpurest
p733
I4647
sVmutton
p734
I3317
sV--"
p735
I257
sVThat
p736
I610
sVjumped
p737
I3318
sVostensible
p738
I2702
sVaffecting
p739
I4648
sVilliberal
p740
I4649
sVuntainted
p741
I4650
sV<eos>Pardon
p742
I4651
sVscreen
p743
I3320
sVgratefully
p744
I3321
sVspare
p745
I1230
sVaggrandise
p746
I4652
sV<eos>Surry
p747
I4653
sVsuppressed
p748
I4654
sVconcentrated
p749
I4655
sVconversed
p750
I4656
sVBraithwaites
p751
I4657
sVmany
p752
I187
sVdeduction
p753
I3322
sVs
p754
I34
sVloudly
p755
I2703
sVexpression
p756
I1617
sVdoctoring
p757
I4658
sVallowance
p758
I3323
sVriddle
p759
I2277
sVinclining
p760
I4659
sVgaiety
p761
I2704
sVWestons
p762
I2002
sVconsiders
p763
I3324
sVcaring
p764
I3325
sVstretch
p765
I4660
sVvacation
p766
I4661
sVneedlessly
p767
I5099
sVpractised
p768
I3327
sVcombined
p769
I4662
sVmotives
p770
I1800
sVwants
p771
I1618
sVenable
p772
I3328
sVWhenever
p773
I3329
sVinfluence
p774
I681
sVthousand
p775
I931
sVformed
p776
I1070
sVobserve
p777
I734
sVformer
p778
I1182
sVfelling
p779
I4665
sVpretence
p780
I2003
sVsingle
p781
I840
sVHim
p782
I4666
sVintimately
p783
I4667
sVconveyance
p784
I4668
sVnewspaper
p785
I4669
sVsituation
p786
I320
sVendured
p787
I1801
sVengaged
p788
I581
sVdubious
p789
I4670
sVregularity
p790
I4671
sVpresides
p791
I4909
sVengages
p792
I4672
sVfame
p793
I2279
sVpreparatory
p794
I2706
sVperpetually
p795
I4673
sVforebodings
p796
I4674
sV<eos>What
p797
I377
sV<eos>How
p798
I391
sVsickness
p799
I3330
sVI
p800
I7
sVobtruding
p801
I4675
sVXVI
p802
I3331
sV_is_
p803
I3332
sVunmanageable
p804
I4676
sVflocks
p805
I4677
sVvacant
p806
I4678
sVbailiff
p807
I4679
sVcommonest
p808
I4680
sVpeculiarities
p809
I4681
sVconversable
p810
I2707
sV_party_
p811
I4682
sV<eos>he
p812
I1456
sVsummer
p813
I810
sVbeing
p814
I86
sV<eos>Witness
p815
I6427
sVrest
p816
I415
sVscrape
p817
I3333
sV<eos>Could
p818
I2004
sVprovocation
p819
I4684
sVpresumption
p820
I1802
sVmedals
p821
I5767
sVhereabouts
p822
I4685
sVinstrument
p823
I735
sVdryly
p824
I3335
sVoverthrow
p825
I4686
sVjoyful
p826
I4687
sV<eos>Such
p827
I736
sVaround
p828
I1071
sV<eos>Worse
p829
I4688
sVdark
p830
I2708
sVtraffic
p831
I4689
sVpreference
p832
I1231
sVworld
p833
I281
sVdare
p834
I370
sVtremulous
p835
I4690
sVstranger
p836
I2709
sVsuperiority
p837
I1457
sVstationary
p838
I4691
sV<eos>Enscombe
p839
I5921
sVsatisfactory
p840
I1803
sVPerry
p841
I339
sVWoodhouse
p842
I100
sVmoreover
p843
I3614
sVthinks
p844
I886
sV<eos>how
p845
I2280
sVdimensions
p846
I3336
sV23rd
p847
I4693
sVrestoring
p848
I4694
sVrefer
p849
I6448
sVunsuccessfully
p850
I4696
sVpower
p851
I508
sVintimate
p852
I1458
sV;"
p853
I1232
sV;'
p854
I2281
sV<eos>there
p855
I2282
sVprepared
p856
I1014
sVstone
p857
I3337
sVjoyfully
p858
I4697
sVindustry
p859
I4698
sVmeal
p860
I2453
sVpracticable
p861
I3338
sVact
p862
I1233
sVluck
p863
I1234
sVsleety
p864
I4699
sVclouds
p865
I7119
sVNo
p866
I252
sVantidote
p867
I4700
sVsneering
p868
I3339
sVwidower
p869
I3340
sVlively
p870
I1321
sV<eos>Surprizes
p871
I4701
sVparties
p872
I785
sVher
p873
I9
sVendeavouring
p874
I2710
sVpersuadable
p875
I3341
sV_Elton_
p876
I3342
sVcomplete
p877
I887
sVfastidious
p878
I4702
sVfidgetiness
p879
I4703
sVHarry
p880
I4704
sV<eos>Go
p881
I4705
sVwith
p882
I26
sVhandsome
p883
I528
sVabused
p884
I4706
sVrush
p885
I3343
sVimpute
p886
I4708
sVdirty
p887
I2283
sVdispensing
p888
I4709
sVagree
p889
I1235
sVtouchstone
p890
I4710
sVdarker
p891
I4711
sVdetailed
p892
I4712
sVgone
p893
I287
sV--."
p894
I4713
sVbrotherly
p895
I3344
sVexhausted
p896
I3345
sVcertain
p897
I737
sVaccents
p898
I4714
sVam
p899
I72
sV<eos>Apologies
p900
I4715
sVan
p901
I65
sVHow
p902
I410
sVas
p903
I22
sVat
p904
I32
sVwalks
p905
I2712
sVwatched
p906
I1619
sVtranquil
p907
I2284
sVamused
p908
I968
sVtremble
p909
I3346
sVcream
p910
I4716
sV<eos>Within
p911
I2713
sVsanguine
p912
I1804
sVpuppy
p913
I3347
sVLady
p914
I4718
sVcontend
p915
I4719
sV<eos>Have
p916
I1805
sVmoderately
p917
I2714
sVgifts
p918
I4720
sVgayest
p919
I4721
sVaccounts
p920
I2285
sVfailures
p921
I4722
sVMadame
p922
I6993
sVVicar
p923
I4724
sVtricks
p924
I4725
sVdyed
p925
I4726
sVimpossibility
p926
I2715
sVsensibility
p927
I2286
sVoriginal
p928
I2005
sV<eos>All
p929
I1236
sVinfluenza
p930
I4727
sVconsider
p931
I529
sVweariness
p932
I3348
sVwelfare
p933
I2716
sVcauses
p934
I2287
sVattentive
p935
I1299
sVhunting
p936
I4728
sVto
p937
I2
sVMickleham
p938
I4729
sV<eos>Too
p939
I4730
sVsmile
p940
I471
sVpaying
p941
I1140
sVproved
p942
I1052
sVreturned
p943
I568
sVpuzzled
p944
I2719
sVfloated
p945
I4732
sVpuzzles
p946
I4733
sVirksomeness
p947
I4734
sVcondition
p948
I2289
sV`
p949
I321
sVaccompanying
p950
I4735
sVingratitude
p951
I3349
sVconfederates
p952
I4736
sVlaying
p953
I4737
sV<eos>CHARADE
p954
I4738
sVlarge
p955
I572
sV_Chaperon_
p956
I4739
sVsmall
p957
I611
sVmount
p958
I4741
sVquicker
p959
I4742
sVmethodical
p960
I4743
sVhonourably
p961
I4744
sVShould
p962
I3350
sVpast
p963
I888
sVcarriages
p964
I1322
sVdisplays
p965
I4086
sVpass
p966
I655
sVquicken
p967
I4745
sVclock
p968
I1459
sVprevailed
p969
I2290
sV_patriae_
p970
I4746
sVnurse
p971
I3351
sVseemed
p972
I188
sVmethod
p973
I4747
sVcontrast
p974
I2720
sVfull
p975
I478
sVescaping
p976
I4748
sVindecision
p977
I4749
sVhours
p978
I811
sVconcluding
p979
I2721
sVcompliance
p980
I3352
sVexperience
p981
I2291
sVacquittal
p982
I3353
sVsocial
p983
I2006
sVaction
p984
I1806
sVsweetness
p985
I1807
sVfollowed
p986
I656
sVmarriages
p987
I4751
sVRichmond
p988
I1323
sVregiment
p989
I4752
sVbeheld
p990
I4753
sVselect
p991
I4754
sVunbleached
p992
I4755
sVattendance
p993
I2292
sVimplore
p994
I4756
sVwavering
p995
I3354
sVfragrance
p996
I4757
sVmore
p997
I62
sVdoor
p998
I479
sVcompany
p999
I573
sVspoilt
p1000
I4758
sVcorrected
p1001
I4759
sV<eos>Escape
p1002
I4760
sVrudeness
p1003
I4761
sVobjections
p1004
I2293
sVdoom
p1005
I4762
sVdislike
p1006
I892
sV?--
p1007
I141
sVkeeping
p1008
I1324
sVgravel
p1009
I3994
sVsent
p1010
I586
sVlearn
p1011
I2294
sVknocked
p1012
I4764
sV<eos>WINDSOR
p1013
I4765
sVYour
p1014
I1237
sVbeautiful
p1015
I841
sVprompt
p1016
I2007
sVlives
p1017
I1808
sVmessages
p1018
I5936
sV<eos>continued
p1019
I3355
sVsuggestions
p1020
I3356
sVaccept
p1021
I1460
sVautumn
p1022
I1621
sVunbiased
p1023
I4767
sVsense
p1024
I371
sVdisliked
p1025
I4768
sVdress
p1026
I1622
sVcondemn
p1027
I3357
sVinformation
p1028
I786
sVrespective
p1029
I4769
sVenlarge
p1030
I4770
sVglowing
p1031
I4771
sVrelinquished
p1032
I4772
sVunattended
p1033
I4773
sVcreature
p1034
I545
sV<eos>Conceive
p1035
I4774
sVintended
p1036
I969
sVdisgraced
p1037
I2722
sVconveniences
p1038
I4775
sVflutter
p1039
I2723
sVrefuse
p1040
I970
sVChurchill
p1041
I135
sVresemble
p1042
I4776
sVprotestation
p1043
I4777
sV<eos>Just
p1044
I3358
sVreplied
p1045
I298
sV<eos>Sixty
p1046
I4778
sVtrade
p1047
I1623
sVattitude
p1048
I4779
sVpaper
p1049
I1238
sVpang
p1050
I4780
sVDixon
p1051
I480
sVreplies
p1052
I3359
sVsmiling
p1053
I657
sVits
p1054
I207
sVsaucy
p1055
I2724
sVrapidly
p1056
I1809
sVExcuse
p1057
I4169
sVcoarser
p1058
I4782
sVsymptoms
p1059
I2295
sVtravelling
p1060
I2296
sVlies
p1061
I3836
sVKindled
p1062
I4783
sVentire
p1063
I1911
sVpropose
p1064
I2725
sVdeliberating
p1065
I4784
sVprotesting
p1066
I7430
sVlikeness
p1067
I842
sVhereafter
p1068
I2726
sValways
p1069
I123
sVtruths
p1070
I2727
sVcourses
p1071
I4785
sVfound
p1072
I248
sVshocking
p1073
I2297
sVbegged
p1074
I1624
sVbends
p1075
I4786
sVdisclaiming
p1076
I4787
sVoperation
p1077
I2298
sV<eos>madness
p1078
I4788
sVreally
p1079
I168
sVtry
p1080
I961
sVmissed
p1081
I1810
sVcandlelight
p1082
I3362
sV<eos>`
p1083
I604
sVdenotes
p1084
I4790
sVexpiation
p1085
I4791
sVdarling
p1086
I4792
sVoccurs
p1087
I4793
sVattentions
p1088
I707
sVnervously
p1089
I4794
sVbelief
p1090
I4795
sVdemure
p1091
I2728
sVdrifting
p1092
I4796
sVqualify
p1093
I4798
sVconditioning
p1094
I4799
sVimagine
p1095
I449
sVreproach
p1096
I1461
sVdefinition
p1097
I3363
sVretained
p1098
I4800
sVdevoid
p1099
I4801
sVrack
p1100
I4802
sVlieu
p1101
I6026
sVsensations
p1102
I1141
sVexpedient
p1103
I4803
sV<eos>Encouragement
p1104
I4804
sVarose
p1105
I2299
sVforwards
p1106
I4805
sV<eos>Mine
p1107
I5419
sVnumber
p1108
I1325
sVmurmured
p1109
I4808
sV_Mr_
p1110
I4809
sVexertions
p1111
I2196
sVfuller
p1112
I2730
sVguest
p1113
I3364
sV<eos>convinced
p1114
I4810
sVintroduction
p1115
I1625
sVthreatening
p1116
I3365
sVheartedness
p1117
I4811
sV_Mrs
p1118
I4812
sVsyllables
p1119
I4813
sVjustly
p1120
I4814
sVwarmly
p1121
I1142
sVlavished
p1122
I4815
sVimmediate
p1123
I1072
sVconsult
p1124
I2731
sVstairs
p1125
I2300
sVgrace
p1126
I1626
sVungrateful
p1127
I3366
sV_sposo_
p1128
I4816
sV<eos>Even
p1129
I1811
sVuntoward
p1130
I6590
sVdetermined
p1131
I492
sVmarriage
p1132
I612
sV<eos>Ever
p1133
I7186
sV<eos>Somebody
p1134
I2733
sV<eos>Did
p1135
I2301
sV<eos>Colonel
p1136
I4818
sVpassant
p1137
I4819
sVclassing
p1138
I4820
sVbeforehand
p1139
I4821
sVfireside
p1140
I3367
sVrecital
p1141
I4822
sVsell
p1142
I4824
sVHannah
p1143
I3368
sVodd
p1144
I709
sVself
p1145
I738
sValso
p1146
I758
sV<eos>Instances
p1147
I4826
sVanalogy
p1148
I4827
sVbrace
p1149
I4828
sVplay
p1150
I1015
sVIn
p1151
I932
sVM
p1152
I3305
sV<eos>In
p1153
I440
sVplan
p1154
I631
sV<eos>If
p1155
I309
sVunderstands
p1156
I3369
sVunequal
p1157
I1812
sVseize
p1158
I4829
sVsometimes
p1159
I574
sVSurry
p1160
I1813
sVIf
p1161
I521
sVattacking
p1162
I4831
sVwording
p1163
I4832
sVgold
p1164
I4833
sVblended
p1165
I4834
sVHad
p1166
I2008
sVaccommodations
p1167
I4264
sVdefended
p1168
I4836
sVBehold
p1169
I3371
sVHas
p1170
I2009
sVoccupation
p1171
I2734
sVsideboard
p1172
I4837
sVwrapt
p1173
I4838
sVdetaining
p1174
I3372
sVAbdy
p1175
I4839
sVwrites
p1176
I1462
sVwriter
p1177
I2735
sVfailed
p1178
I1326
sVindifference
p1179
I1073
sVblameable
p1180
I4840
sVdependent
p1181
I2736
sVceasing
p1182
I4841
sVresent
p1183
I2737
sVpreparing
p1184
I2303
sVclosely
p1185
I4842
sVcharmingly
p1186
I3373
sVenemy
p1187
I3374
sVpleasures
p1188
I1463
sVtottering
p1189
I4843
sVriver
p1190
I2738
sVrivet
p1191
I1628
sVapproaching
p1192
I1814
sVbulky
p1193
I4844
sVdelicately
p1194
I4845
sVset
p1195
I355
sV<eos>And
p1196
I178
sVsex
p1197
I2010
sVsee
p1198
I137
sV<eos>Does
p1199
I4846
sVsea
p1200
I1127
sVoverboard
p1201
I4848
sV<eos>Any
p1202
I2739
sVoutward
p1203
I2304
sVproject
p1204
I3254
sVspirits
p1205
I385
sVseconded
p1206
I4850
sVMight
p1207
I5428
sV<eos>Another
p1208
I1815
sVcellery
p1209
I4851
sVcompliment
p1210
I632
sVknowing
p1211
I1016
sVmilder
p1212
I4852
sVhardship
p1213
I2741
sVBeavers
p1214
I4853
sVspoiled
p1215
I2742
sVfidgets
p1216
I4854
sVrenewed
p1217
I3375
sVprospects
p1218
I2011
sVlast
p1219
I200
sVthou
p1220
I4855
sVbarely
p1221
I2012
sVimproves
p1222
I4856
sVlet
p1223
I378
sVwhole
p1224
I289
sVbell
p1225
I3376
sVseems
p1226
I922
sVacted
p1227
I3378
sV<eos>Skilful
p1228
I4857
sVadjoining
p1229
I2305
sV),
p1230
I1816
sVchurch
p1231
I1817
sVindefinite
p1232
I4858
sVconnexion
p1233
I890
sVdevil
p1234
I4859
sVacceptance
p1235
I4860
sVtrampers
p1236
I4861
sVextravagant
p1237
I4862
sV<eos>Gratifying
p1238
I4863
sVtreatment
p1239
I1629
sVfirm
p1240
I2743
sVsilenced
p1241
I2744
sVfire
p1242
I1143
sVupstart
p1243
I3379
sVmildness
p1244
I4864
sVmoderation
p1245
I4865
sVawake
p1246
I3380
sV<eos>Proportions
p1247
I4866
sVHarriet
p1248
I70
sVFairfax
p1249
I118
sVstruck
p1250
I787
sVsweetbread
p1251
I3381
sVadmire
p1252
I1464
sVforgetting
p1253
I1818
sVpressed
p1254
I1465
sVChurch
p1255
I4867
sVCole
p1256
I416
sVMiss
p1257
I59
sVsecluded
p1258
I4345
sVhoping
p1259
I2307
sVagitation
p1260
I1017
sV<eos>exclaimed
p1261
I4868
sVowes
p1262
I4869
sVbeautifully
p1263
I3382
sVvanish
p1264
I4870
sVexult
p1265
I5435
sVfetching
p1266
I3383
sVmaids
p1267
I4872
sVshorten
p1268
I4873
sV_home_
p1269
I3384
sVrules
p1270
I3385
sVPrejudiced
p1271
I4373
sVRandalls
p1272
I261
sVmortifying
p1273
I2014
sVknitting
p1274
I4386
sV<eos>very
p1275
I2308
sVaffairs
p1276
I2675
sVdoat
p1277
I4875
sValert
p1278
I3386
sVnecessity
p1279
I1327
sVinfamous
p1280
I4876
sVrecent
p1281
I2745
sVoddest
p1282
I3387
sVearnest
p1283
I1669
sVSon
p1284
I4877
sVperson
p1285
I303
sVOstalis
p1286
I4878
sVdissentient
p1287
I4879
sVadmission
p1288
I4880
sVpillars
p1289
I4881
sVeager
p1290
I971
sVparents
p1291
I2309
sVOn
p1292
I2015
sVvictims
p1293
I4882
sVdoors
p1294
I1328
sVdemands
p1295
I4883
sVOf
p1296
I2746
sVcouple
p1297
I843
sVwives
p1298
I2310
sVsuffering
p1299
I1074
sVquest
p1300
I3388
sVprojects
p1301
I4884
sVformal
p1302
I2311
sVvaletudinarian
p1303
I4885
sVimposed
p1304
I3389
sVd
p1305
I1075
sVgoverness
p1306
I1329
sVcommunications
p1307
I2747
sVcontinue
p1308
I1239
sVdisorder
p1309
I2748
sVnames
p1310
I3046
sVirresistibly
p1311
I4887
sVPray
p1312
I1820
sVspring
p1313
I1144
sVmighty
p1314
I4888
sVsight
p1315
I708
sVcurious
p1316
I2749
sVpale
p1317
I2750
sVirresistible
p1318
I2751
sV_told_
p1319
I4889
sVgruel
p1320
I1631
sVstables
p1321
I3390
sVFrank
p1322
I152
sVnovelty
p1323
I4890
sVbehave
p1324
I3391
sV<eos>More
p1325
I4891
sVseclusion
p1326
I2312
sVinclination
p1327
I891
sVbe
p1328
I14
sVagreement
p1329
I4892
sVnowhere
p1330
I3392
sVrelating
p1331
I4893
sVby
p1332
I55
sVanything
p1333
I4543
sVdeserves
p1334
I2313
sVforgave
p1335
I4895
sVencumbrance
p1336
I3393
sVinto
p1337
I157
sVplainest
p1338
I4896
sVYoung
p1339
I4897
sVrepaid
p1340
I4898
sVspending
p1341
I2314
sVexposed
p1342
I2845
sVsubmit
p1343
I2752
sVcustom
p1344
I2753
sVoccupy
p1345
I1822
sVsuit
p1346
I1145
sV:
p1347
I175
sVopens
p1348
I4900
sVconsiderably
p1349
I3394
sVelsewhere
p1350
I4901
sVgraciously
p1351
I3395
sVline
p1352
I1240
sVvicarage
p1353
I2315
sVconsiderable
p1354
I1146
sVcharmed
p1355
I4902
sVinducements
p1356
I4903
sVnieces
p1357
I3396
sVup
p1358
I144
sVus
p1359
I176
sVElegant
p1360
I3397
sV<eos>Small
p1361
I4904
sVapiece
p1362
I4905
sVmedical
p1363
I4906
sVgenial
p1364
I4907
sVcamp
p1365
I4908
sVreconcile
p1366
I3398
sVlikewise
p1367
I2754
sVunsafe
p1368
I4663
sVchat
p1369
I2316
sVgraceful
p1370
I2278
sVconcealment
p1371
I1632
sVpuzzling
p1372
I4910
sVfixing
p1373
I4911
sVidleness
p1374
I4912
sVinvalid
p1375
I3399
sVpreventing
p1376
I4913
sV<eos>Perry
p1377
I1633
sVretract
p1378
I3400
sVcondolence
p1379
I4914
sVsails
p1380
I4915
sVtart
p1381
I4916
sVwonderings
p1382
I4917
sVoblige
p1383
I4918
sVperemptorily
p1384
I5443
sVmeals
p1385
I4920
sVago
p1386
I633
sVlane
p1387
I2317
sVland
p1388
I4921
sVfinery
p1389
I2016
sVage
p1390
I812
sVwalked
p1391
I450
sVcarrying
p1392
I1634
sVfresh
p1393
I1241
sVhaving
p1394
I172
sVessay
p1395
I4922
sVpartial
p1396
I2017
sV<eos>but
p1397
I1467
sVresults
p1398
I4923
sVsoften
p1399
I4924
sVenjoyable
p1400
I4925
sVsofter
p1401
I3401
sVbroader
p1402
I4926
sVamiss
p1403
I2018
sVshrugged
p1404
I4927
sVNash
p1405
I1544
sVluxuries
p1406
I4928
sVconcerned
p1407
I1147
sVyoung
p1408
I148
sVsend
p1409
I759
sVrejoined
p1410
I4929
sVexpeditious
p1411
I4763
sVcarelessly
p1412
I4930
sVresources
p1413
I1635
sVstreet
p1414
I1375
sVgarden
p1415
I1636
sVmixing
p1416
I4931
sVcontinued
p1417
I634
sV<eos>Tell
p1418
I2755
sVmarry
p1419
I340
sVfewer
p1420
I2319
sVanxious
p1421
I682
sVinsolence
p1422
I3402
sV_court_
p1423
I4932
sVimply
p1424
I3403
sVenclosed
p1425
I4933
sVFarmer
p1426
I4934
sV_White
p1427
I4825
sVAssured
p1428
I4936
sVexpressed
p1429
I1330
sVconsistently
p1430
I4937
sVAlas
p1431
I4938
sV<eos>Frank
p1432
I813
sVcharade
p1433
I893
sVstanders
p1434
I4939
sVembrocation
p1435
I4940
sVscepticism
p1436
I4941
sVled
p1437
I710
sVleg
p1438
I2019
sVacquit
p1439
I2961
sVpoverty
p1440
I3404
sVconsideration
p1441
I844
sVgreat
p1442
I116
sVengage
p1443
I1823
sVindiscreetly
p1444
I4943
sVreceive
p1445
I1331
sVinvolved
p1446
I2020
sVresulting
p1447
I4874
sVskin
p1448
I2854
sVopinion
p1449
I310
sVmakes
p1450
I933
sVcomplying
p1451
I3405
sVequals
p1452
I5979
sVcounsels
p1453
I4945
sV_at_
p1454
I3406
sVinconveniently
p1455
I4946
sVdesiring
p1456
I3407
sVstanding
p1457
I760
sVconfidence
p1458
I1018
sVnext
p1459
I341
sVeleven
p1460
I3408
sVassuring
p1461
I3409
sVdoubt
p1462
I245
sVprofessedly
p1463
I4953
sVfeelingly
p1464
I2756
sVpencil
p1465
I2757
sVMADAM
p1466
I7040
sVoccurred
p1467
I1076
sV_the_
p1468
I3410
sVdealings
p1469
I4085
sVopposing
p1470
I3411
sVbaby
p1471
I2320
sVgladly
p1472
I3412
sVdelegating
p1473
I4948
sVdemerits
p1474
I4949
sVcharity
p1475
I1824
sVballs
p1476
I2758
sVAlmane
p1477
I4950
sVretreated
p1478
I3413
sVthis
p1479
I73
sV<eos>Three
p1480
I6377
sVthin
p1481
I1825
sV_names_
p1482
I4951
sVweaker
p1483
I4952
sVbent
p1484
I3414
sVprocess
p1485
I3415
sVlock
p1486
I4947
sVcoolness
p1487
I4954
sVrode
p1488
I3416
sVpurposes
p1489
I4955
sVpieces
p1490
I4956
sVhigh
p1491
I1019
sVbend
p1492
I2759
sVChristmas
p1493
I1332
sVdelay
p1494
I894
sVClayton
p1495
I4957
sVestablishment
p1496
I1826
sVpales
p1497
I4958
sVgreatly
p1498
I2056
sVespecial
p1499
I4960
sVOtway
p1500
I2321
sVwaded
p1501
I7044
sVsingular
p1502
I4962
sVtied
p1503
I4963
sV<eos>Plain
p1504
I4964
sVfits
p1505
I4965
sVcounter
p1506
I3433
sVOne
p1507
I1468
sVacuteness
p1508
I4966
sVallow
p1509
I530
sValloy
p1510
I3417
sV<eos>Approve
p1511
I4967
sV<eos>Time
p1512
I2761
sVmute
p1513
I5008
sVAye
p1514
I1148
sVtenaciously
p1515
I5286
sVvicar
p1516
I3418
sVdoubtful
p1517
I1637
sVproduced
p1518
I1020
sVwaltzes
p1519
I4969
sV<eos>Smallridge
p1520
I4970
sVperfect
p1521
I575
sVchosen
p1522
I1077
sVdispose
p1523
I4971
sVimperfection
p1524
I4972
sV<eos>"--
p1525
I4974
sVdesigns
p1526
I3419
sVundertaking
p1527
I3420
sVVII
p1528
I3421
sVsufficiently
p1529
I1469
sVdelightful
p1530
I481
sVtruth
p1531
I587
sVaccompanied
p1532
I2762
sVbeneath
p1533
I2763
sVglasses
p1534
I3422
sVHolyhead
p1535
I5307
sVslightingly
p1536
I4975
sV_it_
p1537
I7140
sVsociety
p1538
I482
sVbooks
p1539
I2022
sVirritation
p1540
I3423
sVdiffer
p1541
I4976
sVwander
p1542
I4977
sVwitness
p1543
I2764
sVConjecture
p1544
I4978
sV'
p1545
I31
sVVery
p1546
I559
sVWoodhouses
p1547
I2765
sVunprepared
p1548
I3424
sVesteeming
p1549
I4979
sVshut
p1550
I2322
sVGrove
p1551
I596
sVinferiority
p1552
I2323
sVrelease
p1553
I4980
sVsurely
p1554
I3425
sVtempt
p1555
I2766
sVcould
p1556
I38
sV<eos>Long
p1557
I4981
sVlength
p1558
I1470
sVqualifying
p1559
I4982
sVstimulate
p1560
I4983
sVstaggered
p1561
I4984
sVblown
p1562
I4985
sVscene
p1563
I2324
sVowned
p1564
I2767
sVsoothing
p1565
I4986
sVoccurrences
p1566
I4987
sVaffliction
p1567
I3426
sVowner
p1568
I4988
sVopportune
p1569
I4989
sV<eos>Had
p1570
I1471
sVparsnip
p1571
I4990
sVFarm
p1572
I2325
sVdetailing
p1573
I4991
sVsystem
p1574
I2326
sV<eos>Has
p1575
I3427
sVbehaved
p1576
I1638
sVforetelling
p1577
I5181
sVinterests
p1578
I3428
sVaccompany
p1579
I3515
sV<eos>no
p1580
I739
sV<eos>Married
p1581
I4992
sVvouch
p1582
I4993
sVaccompaniment
p1583
I4994
sS'UNK'
p1584
I7448
sV<eos>Certainly
p1585
I3430
sVquietness
p1586
I4995
sVlisteners
p1587
I4996
sV_tell_
p1588
I4997
sVmisunderstand
p1589
I5218
sVingenious
p1590
I3534
sVfalse
p1591
I3434
sV_well_
p1592
I3435
sVlines
p1593
I949
sVtrusting
p1594
I3436
sVgently
p1595
I4999
sVgentle
p1596
I1021
sVmischief
p1597
I2023
sVclearly
p1598
I3437
sVviewed
p1599
I5000
sV<eos>Churchill
p1600
I3438
sVresigned
p1601
I3439
sVdishes
p1602
I5001
sVhesitations
p1603
I4014
sVHodges
p1604
I2024
sV<eos>Ambition
p1605
I5002
sV;--
p1606
I198
sVawes
p1607
I5003
sVHughes
p1608
I2768
sVcourtesy
p1609
I5004
sVdevice
p1610
I2769
sVbred
p1611
I2770
sVstronger
p1612
I1639
sVface
p1613
I658
sVperceiving
p1614
I5005
sV_he_
p1615
I3442
sVwounded
p1616
I5006
sVfact
p1617
I711
sV<eos>had
p1618
I2771
sV<eos>just
p1619
I3443
sVbring
p1620
I531
sVrough
p1621
I2772
sVtrivial
p1622
I3444
sVPhilippics
p1623
I5007
sVprincipal
p1624
I1640
sVpromote
p1625
I4193
sVproduces
p1626
I4968
sVshould
p1627
I84
sVscore
p1628
I4425
sVwretchedness
p1629
I2328
sVhope
p1630
I182
sVmeant
p1631
I546
sVmove
p1632
I972
sVhandle
p1633
I5011
sVlistened
p1634
I1242
sVHumph
p1635
I2773
sVWhether
p1636
I5012
sVfamiliar
p1637
I3445
sVmuttering
p1638
I5013
sVlucky
p1639
I1472
sVlistlessness
p1640
I5014
sVantagonist
p1641
I5015
sV_now_
p1642
I7052
sV<eos>leave
p1643
I5351
sVglossed
p1644
I5017
sVsummon
p1645
I3447
sVdisapprobation
p1646
I5018
sVmultiplicity
p1647
I7054
sVguessing
p1648
I2379
sVallusion
p1649
I3449
sVexerted
p1650
I5371
sVC
p1651
I5978
sVpacket
p1652
I5021
sVedition
p1653
I5022
sV<eos>MY
p1654
I5023
sV<eos>Ma
p1655
I5024
sVerror
p1656
I1827
sVdestiny
p1657
I1641
sVinsulting
p1658
I5025
sV<eos>Mr
p1659
I155
sVquickest
p1660
I3451
sVinjustice
p1661
I2774
sV<eos>My
p1662
I430
sVends
p1663
I5026
sV<eos>William
p1664
I3452
sVspecious
p1665
I5027
sV<eos>Things
p1666
I3453
sVobservable
p1667
I5029
sVfigured
p1668
I5030
sVHart_
p1669
I5031
sVinvited
p1670
I1022
sVinnocently
p1671
I3622
sVfigures
p1672
I5033
sVpuff
p1673
I5034
sVinvites
p1674
I5035
sVquitted
p1675
I1473
sVextent
p1676
I1794
sVWould
p1677
I3455
sVconclude
p1678
I2025
sVauthorised
p1679
I3456
sVwhispering
p1680
I2775
sVremembrances
p1681
I5036
sVpowered
p1682
I3457
sVsteadiness
p1683
I2776
sVdrank
p1684
I3458
sVentitle
p1685
I5037
sVwaste
p1686
I3459
sV_own_
p1687
I5038
sVneighbour
p1688
I2026
sVhateful
p1689
I5039
sVMistake
p1690
I5040
sVwearied
p1691
I5041
sVBroadwood
p1692
I3460
sV<eos>do
p1693
I2777
sVattachments
p1694
I6624
sVexpiration
p1695
I5042
sVdiscoveries
p1696
I2778
sVestimable
p1697
I5982
sV:--"
p1698
I3461
sVexcessively
p1699
I1334
sV<eos>Are
p1700
I3462
sVDixons
p1701
I4016
sVdenial
p1702
I3463
sVinsight
p1703
I5010
sVconcealing
p1704
I5043
sV_thing_
p1705
I5044
sVjoyously
p1706
I5045
sVdeficiency
p1707
I3624
sVball
p1708
I597
sVinfinity
p1709
I5046
sVdusk
p1710
I5047
sVdrink
p1711
I2779
sVupon
p1712
I196
sVinfinite
p1713
I3464
sVpleasantly
p1714
I1642
sVoff
p1715
I237
sVcolour
p1716
I2780
sVcommand
p1717
I761
sVwretchedest
p1718
I5048
sVdrawing
p1719
I659
sVlest
p1720
I3465
sVnegligence
p1721
I5049
sVsoftening
p1722
I3466
sVflesh
p1723
I3467
sVmoments
p1724
I1149
sVrooms
p1725
I1078
sVDEAR
p1726
I5050
sVgenerous
p1727
I2330
sVclergyman
p1728
I5051
sV<eos>the
p1729
I1828
sVWakefield
p1730
I6494
sVday
p1731
I145
sV<eos>Exquisite
p1732
I7177
sVcombine
p1733
I5053
sVwet
p1734
I2027
sVmemorandums
p1735
I5054
sVscoundrel
p1736
I5055
sVincreased
p1737
I1150
sVchecking
p1738
I3468
sVwhispers
p1739
I5056
sVfive
p1740
I493
sVpremature
p1741
I5057
sVdesk
p1742
I3469
sVpassable
p1743
I4261
sVfools
p1744
I3471
sVnerves
p1745
I2408
sVamendment
p1746
I5058
sV<eos>Living
p1747
I5059
sV_assistance_
p1748
I5060
sVavoid
p1749
I1079
sVdoer
p1750
I5061
sVdoes
p1751
I192
sVpassion
p1752
I1474
sV_then_
p1753
I3472
sVforgiven
p1754
I2331
sVcontradicted
p1755
I7066
sV<eos>Put
p1756
I5062
sVpressure
p1757
I5063
sVimaginary
p1758
I2781
sVadversary
p1759
I5064
sVcoldly
p1760
I5065
sVcounties
p1761
I5066
sVgained
p1762
I2332
sVsister
p1763
I683
sVasks
p1764
I3815
sV_to_
p1765
I2783
sVmerited
p1766
I5067
sVforetold
p1767
I5068
sVgainer
p1768
I5069
sVinsufficient
p1769
I5070
sVconcession
p1770
I5071
sValliance
p1771
I2028
sVletters
p1772
I577
sVunfavourable
p1773
I3473
sVfro
p1774
I4441
sVerrands
p1775
I5072
sVuninterruptedly
p1776
I5073
sVinroads
p1777
I5075
sVquarrelling
p1778
I5076
sVmere
p1779
I1244
sVparentage
p1780
I3475
sVprepossessing
p1781
I5077
sV<eos>Soup
p1782
I5078
sVscanty
p1783
I5079
sVstartled
p1784
I5080
sVspecimens
p1785
I5081
sVnaturally
p1786
I1245
sVcomplacency
p1787
I3476
sVWell
p1788
I315
sVconstruction
p1789
I3477
sVbasin
p1790
I2333
sVcount
p1791
I5082
sVdetestable
p1792
I5083
sVwretchedly
p1793
I5084
sVevident
p1794
I2029
sVchained
p1795
I5085
sVsmooth
p1796
I2030
sVtriumphant
p1797
I5086
sVplaced
p1798
I973
sVtosses
p1799
I4740
sVprofusion
p1800
I3478
sVbearing
p1801
I2784
sVrightly
p1802
I3479
sVcontribute
p1803
I5087
sVdenote
p1804
I2785
sVinn
p1805
I3480
sVendeared
p1806
I5088
sVnursed
p1807
I3481
sVcompared
p1808
I1151
sVefficacy
p1809
I5089
sVvariety
p1810
I2334
sVlately
p1811
I845
sV<eos>Absolutely
p1812
I5090
sV<eos>Referring
p1813
I5091
sV<eos>Wax
p1814
I5092
sVFebruary
p1815
I2031
sVrepeat
p1816
I5094
sVoppression
p1817
I5095
sVchance
p1818
I895
sVquarto
p1819
I5096
sVSouth
p1820
I1829
sVinspiration
p1821
I5097
sVfrightfully
p1822
I5098
sVlasted
p1823
I3482
sVrule
p1824
I1335
sV_She_
p1825
I3483
sVgardens
p1826
I2032
sVchild
p1827
I532
sVdesirable
p1828
I846
sVrapid
p1829
I3484
sVnursery
p1830
I2786
sVmansion
p1831
I5100
sVsaved
p1832
I1830
sVeffectually
p1833
I2787
sVneighbours
p1834
I1080
sVvoted
p1835
I5101
sVplaintive
p1836
I3485
sVworth
p1837
I635
sVcompassion
p1838
I1081
sVmania
p1839
I5102
sV<eos>Pass
p1840
I5103
sVbewildered
p1841
I3486
sVcontemplated
p1842
I5104
sVfogs
p1843
I5105
sVannounced
p1844
I2538
sV_wish_
p1845
I6735
sVwhist
p1846
I2788
sVtriumph
p1847
I1831
sVdwindled
p1848
I5107
sVdiverting
p1849
I5108
sVpreached
p1850
I5109
sVoccasioned
p1851
I2335
sV<eos>was
p1852
I2789
sV7th
p1853
I5110
sVovercareful
p1854
I5111
sVestablished
p1855
I2033
sVconfidantes
p1856
I5112
sVincompatible
p1857
I5113
sVconsequent
p1858
I5114
sVabove
p1859
I1152
sVneat
p1860
I2336
sVcarpet
p1861
I5472
sVconsisting
p1862
I5116
sVtold
p1863
I283
sVnotions
p1864
I1832
sVBrown
p1865
I5473
sVkindred
p1866
I5117
sVrichest
p1867
I5118
sVprotection
p1868
I3487
sVpursuit
p1869
I2034
sV<eos>Bates
p1870
I5119
sVobtained
p1871
I2337
sVdaughter
p1872
I327
sVunobjectionable
p1873
I5120
sVTuesday
p1874
I2035
sVHush
p1875
I5121
sVsmoke
p1876
I5122
sVdoleful
p1877
I5123
sVenvious
p1878
I3488
sVsecure
p1879
I1644
sVhighly
p1880
I847
sVuncivil
p1881
I5124
sVopportunities
p1882
I3489
sVglance
p1883
I1082
sVtotal
p1884
I3490
sVplot
p1885
I5125
sV<eos>On
p1886
I1645
sV<eos>Oh
p1887
I509
sV<eos>Of
p1888
I1833
sVnegative
p1889
I5126
sVinsult
p1890
I5127
sV<eos>Considering
p1891
I2790
sV<eos>Or
p1892
I3491
sVseparated
p1893
I2976
sVtolerated
p1894
I5128
sVExtracts
p1895
I5129
sVaware
p1896
I684
sVsobering
p1897
I5130
sVcontinual
p1898
I1834
sVstriving
p1899
I3493
sVword
p1900
I249
sVwore
p1901
I3494
sVwork
p1902
I848
sVrefusing
p1903
I3495
sVworn
p1904
I2791
sVpersuasively
p1905
I7276
sVblooming
p1906
I5131
sVelbow
p1907
I5132
sVelegantly
p1908
I2792
sVunmerited
p1909
I3496
sVStanding
p1910
I5133
sVindicated
p1911
I5134
sVquivering
p1912
I3497
sVPatroness
p1913
I5135
sVimpair
p1914
I5136
sVfanciful
p1915
I2793
sVindifferent
p1916
I1024
sVrecovery
p1917
I5137
sVprovide
p1918
I2338
sVagony
p1919
I5138
sVinterview
p1920
I3499
sVordinary
p1921
I3500
sVhorror
p1922
I2036
sVfever
p1923
I2339
sV<eos>poor
p1924
I2340
sVafter
p1925
I173
sVWill
p1926
I2794
sVlay
p1927
I1336
sVlaw
p1928
I1025
sVarch
p1929
I3501
sVhasty
p1930
I2341
sVappreciate
p1931
I5139
sVorder
p1932
I1246
sV<eos>with
p1933
I3502
sVoffice
p1934
I934
sV<eos>then
p1935
I3503
sVconsent
p1936
I1083
sV_of_
p1937
I3504
sVsatisfied
p1938
I431
sVproportionate
p1939
I5140
sV_respect_
p1940
I5141
sVmisconduct
p1941
I2342
sVsatisfies
p1942
I5142
sVsomewhere
p1943
I3505
sVJudge
p1944
I5143
sVthen
p1945
I169
sVthem
p1946
I69
sVaffected
p1947
I1646
sVsafe
p1948
I788
sVbreak
p1949
I1153
sVband
p1950
I5144
sVpenetration
p1951
I2037
sVshameful
p1952
I2795
sVthey
p1953
I75
sVbank
p1954
I2796
sVbread
p1955
I2797
sVSaunders
p1956
I5145
sVreasonably
p1957
I5146
sVl
p1958
I3506
sV--
p1959
I20
sVmisbehave
p1960
I5147
sVreasonable
p1961
I935
sV<eos>Hartfield
p1962
I5148
sVlifted
p1963
I5149
sVschemes
p1964
I1835
sVobservance
p1965
I5150
sVschemed
p1966
I5153
sVflock
p1967
I5154
sVunclosed
p1968
I5155
sVforty
p1969
I1475
sVfellows
p1970
I5156
sVstrangers
p1971
I5157
sVingenuousness
p1972
I5158
sVmedicine
p1973
I5159
sVforth
p1974
I2343
sVdisagreements
p1975
I5160
sVimpudence
p1976
I7080
sVmourning
p1977
I3507
sVadmits
p1978
I5161
sVunconvinced
p1979
I5162
sVappointments
p1980
I5163
sVdashing
p1981
I5164
sVfastening
p1982
I5165
sVamazement
p1983
I2798
sVenlightened
p1984
I5166
sVcertified
p1985
I5167
sVshrubbery
p1986
I3508
sV<eos>Isabella
p1987
I2038
sVrecovering
p1988
I3509
sVcreated
p1989
I5168
sVSeptember
p1990
I2344
sVappendages
p1991
I5169
sV_secret_
p1992
I5170
sVcaprice
p1993
I3510
sVoppose
p1994
I2345
sV<eos>There
p1995
I232
sVfootsteps
p1996
I5171
sVCooper
p1997
I5172
sVrender
p1998
I5173
sVGoing
p1999
I5174
sVanother
p2000
I218
sVthick
p2001
I2346
sVprotracted
p2002
I5175
sVplentiful
p2003
I5176
sVairs
p2004
I2799
sVUncle
p2005
I3511
sVobservations
p2006
I1647
sVairy
p2007
I3512
sVfarming
p2008
I5177
sVSucklings
p2009
I2039
sVhappily
p2010
I1026
sVrejected
p2011
I3513
sVcorresponded
p2012
I5179
sVmercy
p2013
I2800
sVscenes
p2014
I5180
sVseated
p2015
I1476
sV<eos>But
p2016
I151
sV<eos>Besides
p2017
I2801
sVguilt
p2018
I2802
sVpainful
p2019
I2327
sViron
p2020
I5182
sV<eos>Randalls
p2021
I5183
sVcontrasted
p2022
I5184
sVpowers
p2023
I1027
sVencumbered
p2024
I5185
sVrespecting
p2025
I3514
sVportraits
p2026
I5186
sVreturn
p2027
I406
sVenchanted
p2028
I5187
sVmanner
p2029
I282
sVimpelled
p2030
I5188
sVstomach
p2031
I3429
sVcontents
p2032
I5189
sVforced
p2033
I1477
sVquieter
p2034
I5190
sVstrength
p2035
I1648
sVgenuine
p2036
I2803
sVsilversmith
p2037
I5191
sVconvenient
p2038
I2347
sVlatter
p2039
I2348
sVinquietudes
p2040
I5192
sVsubduing
p2041
I5193
sVsubjects
p2042
I1247
sVluxury
p2043
I2349
sVexplanation
p2044
I1194
sVcircles
p2045
I5195
sVtimidity
p2046
I5196
sVgrave
p2047
I1649
sVBond
p2048
I3516
sVcalculated
p2049
I2805
sVadieus
p2050
I5222
sVinferred
p2051
I2350
sV_compassion_
p2052
I5198
sVaccounted
p2053
I5199
sVaunt
p2054
I356
sVdeeply
p2055
I1568
sVnotion
p2056
I2040
sVfitted
p2057
I5201
sVreserve
p2058
I1337
sVdecidedly
p2059
I1248
sVeminent
p2060
I7084
sVslightest
p2061
I3118
sVrespectfully
p2062
I5202
sVnephew
p2063
I1338
sVAnne
p2064
I3519
sVenjoyed
p2065
I1836
sV<eos>Her
p2066
I288
sVresemblance
p2067
I2351
sVconsciousness
p2068
I745
sVindustriously
p2069
I3520
sVdeepest
p2070
I3521
sVpursuing
p2071
I3522
sVadequate
p2072
I5203
sVdo
p2073
I53
sVde
p2074
I5204
sV<eos>Observe
p2075
I3523
sVleisure
p2076
I1154
sVdegradation
p2077
I2352
sVexulting
p2078
I3524
sVhaunted
p2079
I5205
sVroundabout
p2080
I5206
sVhappiest
p2081
I1650
sVruns
p2082
I3525
sVbehindhand
p2083
I3526
sV<eos>Very
p2084
I1837
sVrung
p2085
I5207
sVexplanations
p2086
I3527
sV<eos>Warmth
p2087
I5208
sVmiserably
p2088
I2806
sVgladness
p2089
I5209
sVobserved
p2090
I936
sVdepends
p2091
I1651
sVcattle
p2092
I5210
sVmiserable
p2093
I1249
sV_my_
p2094
I3528
sVdiffidence
p2095
I3529
sVdraws
p2096
I3530
sVaway
p2097
I183
sVafloat
p2098
I5211
sVgentleman
p2099
I510
sVunable
p2100
I3531
sVdrawn
p2101
I1028
sVHappy
p2102
I5212
sVfailings
p2103
I5213
sVaccord
p2104
I5197
sVterms
p2105
I1479
sVadmiring
p2106
I5214
sVspectacles
p2107
I1480
sVdisservice
p2108
I5215
sVintelligent
p2109
I2807
sVkitchen
p2110
I3532
sVreceived
p2111
I547
sVclimate
p2112
I5216
sVcow
p2113
I2808
sVill
p2114
I311
sVmatrimony
p2115
I2809
sV<eos>Seats
p2116
I5217
sVdevotion
p2117
I3431
sVreceives
p2118
I5219
sVexceeds
p2119
I5220
sVsatisfactions
p2120
I6006
sVcollecting
p2121
I3432
sVtone
p2122
I814
sVexcess
p2123
I5489
sVseizure
p2124
I3536
sVcondescending
p2125
I5221
sVIreland
p2126
I1250
sVspeak
p2127
I229
sVgratitude
p2128
I613
sV<eos>Still
p2129
I3537
sVwarmth
p2130
I1339
sVduties
p2131
I2810
sVfamilies
p2132
I1481
sVbeloved
p2133
I1442
sVattacked
p2134
I5223
sVexcite
p2135
I2811
sVharboured
p2136
I5224
sVgracious
p2137
I2812
sVapplied
p2138
I3538
sVphysician
p2139
I5225
sVeast
p2140
I5226
sVconviction
p2141
I1497
sVtwelvemonth
p2142
I2813
sVair
p2143
I511
sVrationally
p2144
I3539
sVabrupt
p2145
I3540
sVaid
p2146
I3541
sVvoice
p2147
I436
sVmistake
p2148
I974
sVsting
p2149
I5228
sVcomparative
p2150
I5229
sVslighting
p2151
I5230
sVconfirmed
p2152
I2354
sVbilious
p2153
I2814
sVperform
p2154
I3542
sVStop
p2155
I3543
sVagreeableness
p2156
I3544
sVsheltered
p2157
I5231
sVmonarch
p2158
I2815
sVconvictions
p2159
I3545
sVflatteries
p2160
I5232
sVunconcern
p2161
I5233
sVindependent
p2162
I1652
sVpalpably
p2163
I3546
sVswell
p2164
I2816
sVhang
p2165
I5234
sVevil
p2166
I624
sVhand
p2167
I399
sVliberties
p2168
I5236
sVconfiding
p2169
I5237
sVpalpable
p2170
I5238
sVblamed
p2171
I5239
sVprescribed
p2172
I5240
sVkept
p2173
I741
sVhumble
p2174
I1251
sVtormenting
p2175
I5241
sVimpertinent
p2176
I3547
sVthe
p2177
I3
sVmusical
p2178
I1155
sVaffability
p2179
I6014
sV<eos>Respect
p2180
I3548
sV<eos>Although
p2181
I5242
sVthanks
p2182
I1838
sVbandied
p2183
I5243
sVconvivial
p2184
I5244
sVadding
p2185
I5245
sVpassive
p2186
I5246
sVspread
p2187
I2577
sV<eos>now
p2188
I5247
sV<eos>not
p2189
I5248
sVtricking
p2190
I5249
sVcaps
p2191
I5250
sVdisinclination
p2192
I3550
sVcooler
p2193
I2817
sVimpertinently
p2194
I5251
sV_particular_
p2195
I5252
sVnight
p2196
I472
sVaugur
p2197
I4113
sVsecurity
p2198
I2818
sVcooled
p2199
I3551
sVlashes
p2200
I3552
sV<eos>Tea
p2201
I3553
sV<eos>those
p2202
I5254
sVflatter
p2203
I2819
sVeyeing
p2204
I5255
sVborn
p2205
I2041
sVhuswife
p2206
I5256
sVbore
p2207
I1653
sVungracious
p2208
I2355
sVcongratulate
p2209
I2042
sVpurple
p2210
I5257
sVcomments
p2211
I5258
sVasking
p2212
I1340
sVLet
p2213
I1839
sVdenied
p2214
I2356
sVSchool
p2215
I5259
sVview
p2216
I614
sVprocure
p2217
I2357
sVPlace
p2218
I5260
sVprovocations
p2219
I5261
sVpost
p2220
I1084
sVtheirs
p2221
I5263
sVmonths
p2222
I615
sVaccepts
p2223
I5264
sVdined
p2224
I5265
sVgingerbread
p2225
I5266
sVtreble
p2226
I5268
sVconsiderations
p2227
I3555
sVpays
p2228
I3556
sVprofession
p2229
I2820
sVdelighted
p2230
I660
sVrendering
p2231
I5269
sVloin
p2232
I2821
sVformidable
p2233
I2822
sVInsufferable
p2234
I5270
sVungenial
p2235
I5271
sVwan
p2236
I5272
sVaccordingly
p2237
I3557
sVway
p2238
I174
sVwas
p2239
I8
sVwar
p2240
I5273
sVdiligence
p2241
I5274
sVbecoming
p2242
I1341
sVconverse
p2243
I5275
sVarrear
p2244
I5276
sVelderly
p2245
I3829
sVastonished
p2246
I2043
sVtrue
p2247
I432
sVcomprehending
p2248
I3559
sVabsent
p2249
I1342
sVgenerosity
p2250
I3560
sV<eos>returned
p2251
I5277
sVinquiring
p2252
I2358
sVmails
p2253
I5278
sVpromises
p2254
I2823
sVhotter
p2255
I3561
sVevidence
p2256
I5279
sVguessed
p2257
I1654
sVpromised
p2258
I1029
sVweakened
p2259
I5280
sVstake
p2260
I3562
sVreality
p2261
I5281
sVinterested
p2262
I1030
sVunwilling
p2263
I1655
sVbrothers
p2264
I2359
sVwelcome
p2265
I1252
sVconvincing
p2266
I3563
sVpolite
p2267
I5282
sV<eos>Give
p2268
I5283
sVbestowed
p2269
I2824
sVinterval
p2270
I2044
sVtogether
p2271
I276
sVreception
p2272
I2825
sVprecedent
p2273
I5284
sVsongs
p2274
I5285
sVimpulse
p2275
I5506
sVdance
p2276
I762
sVhorseback
p2277
I2606
sVunmixed
p2278
I5289
sVgrateful
p2279
I1085
sV<eos>Acquit
p2280
I6545
sVdevoted
p2281
I2360
sVcertainly
p2282
I250
sVhurry
p2283
I816
sV?'"
p2284
I3564
sVpermanently
p2285
I3565
sVterror
p2286
I2045
sVdisapproved
p2287
I5292
sVpuppyism
p2288
I5293
sVfeebly
p2289
I5294
sVdrudge
p2290
I6018
sVseemingly
p2291
I3566
sVtrouble
p2292
I1031
sVfeeble
p2293
I5296
sVperceived
p2294
I1840
sVJust
p2295
I2361
sVpresented
p2296
I5297
sVturns
p2297
I2046
sVFancying
p2298
I5298
sVGeorge
p2299
I2362
sVupper
p2300
I2826
sVregret
p2301
I661
sVregained
p2302
I5299
sVdiscover
p2303
I2363
sVagitate
p2304
I5300
sVcost
p2305
I3567
sVperplexity
p2306
I2827
sVhelpless
p2307
I3568
sVpenetrated
p2308
I5301
sVcurse
p2309
I5302
sVappear
p2310
I578
sVassistance
p2311
I1156
sVsharer
p2312
I5235
sVImagine
p2313
I3569
sVshared
p2314
I5303
sVthereabouts
p2315
I5304
sValertness
p2316
I3570
sVsatisfy
p2317
I1482
sVoverseers
p2318
I5305
sVmuslin
p2319
I5306
sVpause
p2320
I1333
sVrubbers
p2321
I5308
sV<eos>to
p2322
I4237
sV<eos>Woman
p2323
I5309
sVShocking
p2324
I5310
sVteaches
p2325
I5311
sVappears
p2326
I1032
sVchange
p2327
I372
sVsending
p2328
I2047
sVmerriment
p2329
I3571
sVexemption
p2330
I5312
sV_Rev
p2331
I5313
sVtrial
p2332
I2364
sVbangs
p2333
I5314
sVDear
p2334
I1577
sV<eos>Will
p2335
I2133
sVmatrimonial
p2336
I3572
sVregardless
p2337
I3573
sVlivelihood
p2338
I6858
sVlending
p2339
I5315
sVmarked
p2340
I3574
sVsincerely
p2341
I1657
sVsufferers
p2342
I5316
sVillumination
p2343
I5317
sVrarely
p2344
I3575
sVprove
p2345
I1483
sVlive
p2346
I937
sVunadorned
p2347
I5318
sVofficiating
p2348
I5319
sVsighted
p2349
I3576
sVripening
p2350
I5320
sVintently
p2351
I2366
sVentrance
p2352
I2829
sVcredulity
p2353
I5321
sVF
p2354
I2830
sVclub
p2355
I2367
sVrepentance
p2356
I5322
sVhesitated
p2357
I2831
sVmisconception
p2358
I5323
sVindescribable
p2359
I3577
sVcar
p2360
I5324
sVcan
p2361
I107
sVslumbering
p2362
I5325
sVheart
p2363
I322
sVhears
p2364
I2368
sVpaused
p2365
I3186
sVheard
p2366
I223
sVo
p2367
I1658
sVphrase
p2368
I2393
sVclothing
p2369
I5328
sVoccur
p2370
I1484
sV,'
p2371
I588
sVproductive
p2372
I5329
sV,"
p2373
I76
sVfortunately
p2374
I3579
sVdiscussion
p2375
I2369
sVmeans
p2376
I441
sVtrophies
p2377
I5330
sV,)
p2378
I616
sVwrite
p2379
I789
sVstoreroom
p2380
I5331
sVallowable
p2381
I3580
sVforeboded
p2382
I5332
sVstaircase
p2383
I3581
sVsuperintend
p2384
I5333
sVAlways
p2385
I3582
sVsacrifice
p2386
I1485
sVaverted
p2387
I3583
sVdisgusted
p2388
I5334
sVproduce
p2389
I1841
sV?)
p2390
I5335
sVMartin
p2391
I284
sV?'
p2392
I2832
sV?"
p2393
I121
sVwainscot
p2394
I3584
sVremember
p2395
I512
sVwhenever
p2396
I790
sVcandles
p2397
I3585
sVsagacity
p2398
I5336
sVoffend
p2399
I2833
sVindeed
p2400
I150
sVforfeit
p2401
I5337
sVdisplayed
p2402
I5338
sVconsulting
p2403
I2370
sVbewitching
p2404
I3586
sVplayful
p2405
I5339
sVbrain
p2406
I2234
sVhaberdasher
p2407
I5882
sVgenteel
p2408
I3587
sVcold
p2409
I400
sVstill
p2410
I219
sVtrifle
p2411
I2371
sVacknowledge
p2412
I1344
sVselves
p2413
I3588
sVcurls
p2414
I5340
sVinflicted
p2415
I5341
sVforms
p2416
I5342
sVwindow
p2417
I1157
sVspacious
p2418
I5343
sVdreadfully
p2419
I1842
sVatonement
p2420
I5344
sV<eos>So
p2421
I815
sVchattering
p2422
I5345
sVcorrespondence
p2423
I3589
sVnon
p2424
I5346
sVfling
p2425
I5347
sVnod
p2426
I5348
sV_mediocre_
p2427
I5349
sVintroduce
p2428
I2372
sVliberality
p2429
I3590
sVhalf
p2430
I201
sVnot
p2431
I12
sVcourtship
p2432
I5350
sVson
p2433
I446
sVprovision
p2434
I2834
sVhall
p2435
I1660
sVnor
p2436
I342
sVcontemptible
p2437
I3446
sVthankful
p2438
I2049
sVservant
p2439
I2373
sVdrop
p2440
I3591
sVbursts
p2441
I5352
sVAgricultural
p2442
I5353
sVentirely
p2443
I490
sVvexation
p2444
I1843
sVconcerts
p2445
I5354
sVen
p2446
I5355
sVprompted
p2447
I2374
sV_caro_
p2448
I5356
sVhurried
p2449
I2050
sVfires
p2450
I5357
sVyear
p2451
I662
sVnaming
p2452
I2711
sVavoided
p2453
I2375
sVamusement
p2454
I975
sVcircumspection
p2455
I5359
sVaccomplish
p2456
I5360
sVopened
p2457
I1253
sVspace
p2458
I2376
sVhastily
p2459
I2377
sVincrease
p2460
I1661
sVrational
p2461
I976
sVhousemaid
p2462
I5361
sVreceiving
p2463
I1487
sVshows
p2464
I5362
sVinevitably
p2465
I3592
sV<eos>From
p2466
I1488
sVcart
p2467
I5363
sVadvantages
p2468
I1489
sVcaro
p2469
I3593
sVBroadway
p2470
I6557
sVobligation
p2471
I2835
sVinevitable
p2472
I2378
sVcard
p2473
I1662
sVcare
p2474
I401
sVfixed
p2475
I992
sVcontemplation
p2476
I3595
sVtransition
p2477
I2836
sVkingdoms
p2478
I5365
sVhonest
p2479
I2837
sVgrandpapa
p2480
I5366
sVinvitation
p2481
I938
sVthankfulness
p2482
I5367
sVoutcry
p2483
I5368
sVblind
p2484
I1159
sVbenefited
p2485
I3596
sVstriking
p2486
I2665
sVThere
p2487
I533
sVyourself
p2488
I386
sVTill
p2489
I3597
sVdirectly
p2490
I433
sVimpossible
p2491
I494
sVmessage
p2492
I1490
sVdrove
p2493
I3598
sVEver
p2494
I3599
sVsize
p2495
I1345
sVchecked
p2496
I3250
sVsilent
p2497
I685
sVcaught
p2498
I763
sVlightened
p2499
I3600
sV_some_
p2500
I3601
sVchecker
p2501
I5370
sVproclaimed
p2502
I3602
sVbravado
p2503
I7444
sVframe
p2504
I3450
sVfriend
p2505
I153
sVartless
p2506
I2380
sVpomp
p2507
I3603
sVmostly
p2508
I5372
sVthat
p2509
I16
sValleviations
p2510
I3604
sVthan
p2511
I74
sVaffronted
p2512
I5373
sVapples
p2513
I1254
sV<eos>After
p2514
I939
sVrespectability
p2515
I5374
sVtroublesome
p2516
I1663
sVangel
p2517
I2838
sVaspersion
p2518
I4440
sVcraig
p2519
I5375
sVpunctually
p2520
I5376
sVanger
p2521
I1844
sVbreakfast
p2522
I1346
sVrecover
p2523
I2051
sVgroundless
p2524
I7109
sVoffering
p2525
I1881
sVovercoming
p2526
I5377
sVswelled
p2527
I5378
sV<eos>snows
p2528
I5379
sVbegin
p2529
I636
sVoppressive
p2530
I5380
sVprice
p2531
I5381
sVneatly
p2532
I5382
sVplainer
p2533
I5383
sV]
p2534
I5384
sVforever
p2535
I5385
sVdream
p2536
I1664
sVsteady
p2537
I1491
sVtooth
p2538
I5386
sVpattern
p2539
I2052
sVprofessional
p2540
I5387
sVdispersed
p2541
I3607
sV_present_
p2542
I5388
sVfifty
p2543
I3608
sVdiscovered
p2544
I2839
sV<eos>Shall
p2545
I2840
sVgratified
p2546
I1160
sVgeography
p2547
I4531
sVWoman
p2548
I5389
sVWorse
p2549
I5390
sVproportion
p2550
I2381
sVstaid
p2551
I1845
sVonly
p2552
I89
sVstain
p2553
I3609
sV<eos>Supper
p2554
I5391
sV<eos>
p2555
I5392
sVtruly
p2556
I1255
sVcannot
p2557
I179
sVhonours
p2558
I5393
sVhumourist
p2559
I3610
sVseldom
p2560
I1348
sVsorrowfully
p2561
I5394
sVEncouragement
p2562
I5395
sVbaits
p2563
I5396
sVhusband
p2564
I637
sVconcert
p2565
I5397
sVburst
p2566
I1349
sVunmarried
p2567
I5398
sVunfit
p2568
I2841
sVasleep
p2569
I5399
sVsport
p2570
I5400
sVconcern
p2571
I849
sVcolours
p2572
I2842
sVcomplexion
p2573
I1350
sVbetween
p2574
I316
sVjustified
p2575
I2053
sVnotice
p2576
I764
sVblame
p2577
I2054
sVWere
p2578
I3612
sVarticle
p2579
I2843
sV'--
p2580
I2382
sVresided
p2581
I5402
sV,"--
p2582
I1087
sV<eos>Nonsense
p2583
I5403
sVcomes
p2584
I791
sVshamefully
p2585
I3613
sVmadness
p2586
I5404
sV_ship_
p2587
I5405
sVliberal
p2588
I1228
sV_have_
p2589
I5406
sV<eos>_Now_
p2590
I3615
sV<eos>good
p2591
I3616
sVcares
p2592
I1665
sVinformed
p2593
I2055
sVcared
p2594
I1351
sVdangers
p2595
I3617
sVastonish
p2596
I5518
sVhomely
p2597
I5408
sVarrowroot
p2598
I3618
sVsuspected
p2599
I1033
sVthese
p2600
I483
sVtrick
p2601
I3619
sV:"--
p2602
I3620
sVBetter
p2603
I3621
sVraptures
p2604
I2383
sVcommanded
p2605
I5411
sVworry
p2606
I5412
sVreappearance
p2607
I7118
sVnorthward
p2608
I5414
sV<eos>dear
p2609
I1666
sVetc
p2610
I5032
sVinquire
p2611
I1846
sVinsidious
p2612
I5415
sVgentlemen
p2613
I897
sVfood
p2614
I3661
sVinquiry
p2615
I1492
sVSupposing
p2616
I5417
sVnoble
p2617
I2844
sVfinish
p2618
I2384
sVclosest
p2619
I3623
sVenjoyment
p2620
I765
sVfruit
p2621
I5418
sVdespatched
p2622
I4806
sVunasked
p2623
I4807
sVenchanting
p2624
I5420
sVcomplained
p2625
I5421
sVcharges
p2626
I5422
sVsevere
p2627
I977
sVService
p2628
I5423
sVdancers
p2629
I5425
sVvaluable
p2630
I1493
sVfoot
p2631
I1677
sVtouch
p2632
I1088
sVspeed
p2633
I2740
sV<eos>actually
p2634
I5429
sVdeath
p2635
I1352
sVHer
p2636
I1667
sVthinking
p2637
I348
sVsenseless
p2638
I5430
sVimprovement
p2639
I1668
sVvolubility
p2640
I5431
sVverse
p2641
I5432
sVfelicities
p2642
I3625
sVdisputing
p2643
I5433
sVmournful
p2644
I5434
sVreal
p2645
I495
sVfrown
p2646
I4871
sVread
p2647
I513
sVoffence
p2648
I1847
sVspecimen
p2649
I5436
sVrepetitions
p2650
I3626
sVearly
p2651
I514
sVquickness
p2652
I1630
sV_she_
p2653
I1089
sVlistening
p2654
I1848
sVexecution
p2655
I3627
sVlady
p2656
I304
sVfortune
p2657
I560
sVheightened
p2658
I5437
sVpounds
p2659
I2385
sVengross
p2660
I5438
sVamiableness
p2661
I5439
sVbenefit
p2662
I3628
sV<eos>Many
p2663
I2386
sVt
p2664
I1034
sVfully
p2665
I898
sVanimating
p2666
I3629
sV<eos>Little
p2667
I2387
sVBefore
p2668
I5440
sVtwelve
p2669
I1670
sVfalsehood
p2670
I3630
sVverbal
p2671
I5441
sVapartments
p2672
I4899
sVsentimentally
p2673
I3631
sVMark
p2674
I5442
sVperverse
p2675
I4919
sVwheat
p2676
I5444
sVbusiness
p2677
I392
sVcarefulness
p2678
I5445
sVuneasy
p2679
I1256
sVexciting
p2680
I2388
sVhandsomest
p2681
I2846
sVthrow
p2682
I1849
sVfondness
p2683
I3633
sVcomparison
p2684
I1494
sVintolerable
p2685
I4213
sVsublimity
p2686
I5446
sVjourney
p2687
I1173
sVremonstrance
p2688
I4959
sVRobert
p2689
I728
sVderanged
p2690
I5447
sVdaringly
p2691
I5448
sVheavy
p2692
I1353
sV<eos>Behold
p2693
I5449
sVinvolvement
p2694
I5450
sVheated
p2695
I2847
sVshrinking
p2696
I5451
sVyour
p2697
I91
sVstare
p2698
I5452
sVforwarded
p2699
I5453
sVprepare
p2700
I3634
sVremoving
p2701
I2848
sVstart
p2702
I2849
sVlow
p2703
I899
sVlot
p2704
I5454
sVpoliteness
p2705
I2057
sVattends
p2706
I6576
sVpitcher
p2707
I5456
sVdelayed
p2708
I3636
sVcottage
p2709
I1850
sVattainable
p2710
I5457
sVtrying
p2711
I792
sVproposal
p2712
I1495
sV_been_
p2713
I5458
sVfraud
p2714
I5459
sVintermission
p2715
I5460
sVillnesses
p2716
I3637
sV<eos>Leave
p2717
I5461
sVdescribe
p2718
I1671
sVmoved
p2719
I2389
sV<eos>Come
p2720
I2058
sVmoves
p2721
I3638
sVhazle
p2722
I3639
sVunwelcome
p2723
I2390
sVcabinets
p2724
I5462
sVadministered
p2725
I5463
sVHighbury
p2726
I211
sVthither
p2727
I2391
sVevenings
p2728
I2850
sVyou
p2729
I17
sVpoor
p2730
I238
sVGreat
p2731
I5464
sVforgiving
p2732
I5465
sVsuited
p2733
I1672
sVbuilding
p2734
I5466
sVridden
p2735
I6582
sVmoonlight
p2736
I3640
sVrequisition
p2737
I5468
sVforswear
p2738
I5093
sVdoubted
p2739
I1496
sVsince
p2740
I357
sVexhibitions
p2741
I5469
sVpointing
p2742
I5470
sValleviation
p2743
I3642
sVmonth
p2744
I1161
sVblanche
p2745
I5471
sVceased
p2746
I2059
sVthoughtful
p2747
I2060
sVTake
p2748
I3643
sVreproaching
p2749
I5115
sVdreadful
p2750
I1023
sVtalkativeness
p2751
I5474
sVdumpling
p2752
I5475
sVCramer
p2753
I6690
sVrelieve
p2754
I2851
sVconfidential
p2755
I5476
sVhomes
p2756
I3064
sVvery
p2757
I29
sVindubitable
p2758
I2852
sVcoloured
p2759
I3498
sVminded
p2760
I3645
sVdecide
p2761
I2853
sV<eos>Ford
p2762
I3646
sVdeficient
p2763
I2061
sVguileless
p2764
I5478
sVceaseless
p2765
I3647
sVmutterings
p2766
I5479
sV_moment_
p2767
I5480
sV_Mrs_
p2768
I5481
sVfence
p2769
I5482
sVstreets
p2770
I5178
sVunheard
p2771
I5484
sVvalue
p2772
I1197
sVconscience
p2773
I1673
sV<eos>Then
p2774
I1478
sVemotions
p2775
I3648
sV<eos>They
p2776
I193
sVlearned
p2777
I3649
sVacknowledgments
p2778
I5485
sV<eos>Hazle
p2779
I5486
sVanswers
p2780
I3650
sVgrudged
p2781
I5487
sV<eos>can
p2782
I5488
sVtrunk
p2783
I3535
sVstrong
p2784
I484
sVhandwriting
p2785
I2548
sVinterposed
p2786
I5490
sVahead
p2787
I5227
sVlosses
p2788
I5491
sV)--
p2789
I1090
sVdrawers
p2790
I5492
sVadvertising
p2791
I5493
sV_all_
p2792
I2856
sVobtrude
p2793
I5494
sVfamily
p2794
I305
sVtenderer
p2795
I5495
sVrequiring
p2796
I5496
sV_promise_
p2797
I5497
sVbordered
p2798
I5498
sVask
p2799
I548
sVaimed
p2800
I5499
sVattendant
p2801
I5500
sVtakes
p2802
I1674
sVinjure
p2803
I5501
sVprobabilities
p2804
I3652
sVpraised
p2805
I2477
sV<eos>See
p2806
I5502
sVtaken
p2807
I387
sVinjury
p2808
I3653
sVlowering
p2809
I5503
sVmarks
p2810
I3319
sVSt
p2811
I5505
sVBless
p2812
I2857
sVexcuse
p2813
I793
sVSo
p2814
I686
sVbroke
p2815
I5287
sVmounted
p2816
I5291
sVproducing
p2817
I2392
sVhelped
p2818
I3654
sVoffended
p2819
I2858
sVnine
p2820
I2859
sVspontaneous
p2821
I5507
sVunfeignedly
p2822
I6298
sVhistory
p2823
I978
sVpushed
p2824
I2860
sV<eos>People
p2825
I5508
sVcows
p2826
I5509
sVexclude
p2827
I5327
sVfirmly
p2828
I5510
sVterribly
p2829
I5544
sVstayed
p2830
I5511
sVforeseen
p2831
I3656
sVunlucky
p2832
I3657
sV_two_
p2833
I5512
sVtried
p2834
I742
sVrude
p2835
I2062
sVcommunicating
p2836
I3658
sVderived
p2837
I5513
sV_not_
p2838
I1498
sV<eos>Were
p2839
I1675
sVa
p2840
I6
sVcontrived
p2841
I2394
sVundergo
p2842
I5514
sVrenewing
p2843
I3605
sVdread
p2844
I1851
sVegg
p2845
I4270
sVfatigued
p2846
I2861
sVhelp
p2847
I515
sVsoon
p2848
I128
sVheld
p2849
I1499
sV_be_
p2850
I5516
sVcommitted
p2851
I3659
sVseeming
p2852
I1354
sVsurprized
p2853
I617
sVlabours
p2854
I5517
sVreluctance
p2855
I2862
sVactually
p2856
I687
sVabsence
p2857
I1355
sVsystems
p2858
I5407
sVfool
p2859
I2863
sVevening
p2860
I258
sVnestled
p2861
I5519
sVindefatigable
p2862
I5424
sVworthies
p2863
I5520
sVye
p2864
I1676
sVreigning
p2865
I5521
sVanticipated
p2866
I2395
sVsweeping
p2867
I5426
sVslighted
p2868
I2063
sVdesperately
p2869
I5522
sVerection
p2870
I5523
sVoccasions
p2871
I2064
sVlimes
p2872
I6057
sVbless
p2873
I5524
sVstopped
p2874
I1162
sVfairy
p2875
I3662
sVsketches
p2876
I3663
sVEnd
p2877
I1678
sVrestless
p2878
I5525
sVbeyond
p2879
I473
sVabsurdity
p2880
I3664
sVevent
p2881
I850
sVdeedily
p2882
I5526
sVdears
p2883
I5527
sVveneration
p2884
I5528
sVpresumptuous
p2885
I5529
sVunnatural
p2886
I2864
sVsurrounded
p2887
I2865
sVmeditating
p2888
I5530
sVtestify
p2889
I5531
sVsafety
p2890
I1679
sVissue
p2891
I5532
sVNone
p2892
I3665
sVwisest
p2893
I5533
sVimpertinence
p2894
I5534
sVciphers
p2895
I5535
sVhouses
p2896
I1680
sVreason
p2897
I534
sVbase
p2898
I5536
sVbrightest
p2899
I5537
sVput
p2900
I358
sVearliest
p2901
I5538
sVTan
p2902
I5539
sV<eos>one
p2903
I5540
sVunbecoming
p2904
I5541
sVpersuading
p2905
I2065
sV<eos>interrupted
p2906
I5543
sVcheering
p2907
I3655
sVexpecting
p2908
I1091
sVdiffuses
p2909
I5545
sVblush
p2910
I851
sV<eos>We
p2911
I393
sVprobability
p2912
I1258
sVunfeigned
p2913
I5546
sVreflected
p2914
I5547
sVelder
p2915
I2866
sVunexpected
p2916
I2867
sVgrandpapas
p2917
I5548
sVmiss
p2918
I1852
sVhorse
p2919
I2066
sVperturbation
p2920
I2396
sVblossom
p2921
I5549
sVobedience
p2922
I5550
sVstation
p2923
I2868
sVhindered
p2924
I5551
sVhundred
p2925
I979
sV<eos>certainly
p2926
I5552
sVshifted
p2927
I5553
sVladylike
p2928
I5554
sVbowed
p2929
I2869
sVpassed
p2930
I398
sV<eos>Dear
p2931
I1681
sValphabets
p2932
I3666
sVpartiality
p2933
I6538
sVflattery
p2934
I2871
sVulcerated
p2935
I5555
sV_I_
p2936
I1259
sVscheme
p2937
I713
sVkindly
p2938
I1500
sVlament
p2939
I2872
sVgrey
p2940
I5556
sVhesitating
p2941
I2397
sVbride
p2942
I1092
sValluding
p2943
I3667
sVstore
p2944
I7137
sV_Taylor_
p2945
I5557
sVShakespeare
p2946
I5558
sVdeciding
p2947
I5559
sVDepend
p2948
I2873
sVGod
p2949
I1682
sVWingfield
p2950
I1501
sVtraits
p2951
I6759
sVsentences
p2952
I2874
sV<eos>Quite
p2953
I2067
sVlie
p2954
I5560
sVsuddenness
p2955
I3668
sVchurchwardens
p2956
I7139
sVlabour
p2957
I2398
sVlip
p2958
I3669
sVuseless
p2959
I5561
sVcomprehended
p2960
I3670
sVWith
p2961
I2399
sVaired
p2962
I3671
sVtowards
p2963
I332
sVinference
p2964
I5562
sVapprover
p2965
I5563
sVhired
p2966
I5564
sVeaten
p2967
I3672
sVThe
p2968
I306
sVapproved
p2969
I2068
sVsalary
p2970
I3673
sVperformances
p2971
I5565
sVclear
p2972
I1502
sVpopularity
p2973
I2876
sVunreasonable
p2974
I1357
sVunreasonably
p2975
I2877
sVclean
p2976
I5566
sVvelocity
p2977
I5567
sVlatest
p2978
I2400
sVperseverance
p2979
I2401
sVlanguid
p2980
I5568
sVcrayon
p2981
I5569
sVinventing
p2982
I5570
sVsheepskin
p2983
I5571
sV<eos>Must
p2984
I5572
sVdistressing
p2985
I2402
sVjustice
p2986
I743
sVless
p2987
I328
sVassertion
p2988
I5573
sVdarted
p2989
I2878
sVpretty
p2990
I349
sVcriticising
p2991
I5574
sVcircle
p2992
I941
sV<eos>Kitty
p2993
I3674
sVmeanwhile
p2994
I2403
sVtrees
p2995
I2404
sVfamous
p2996
I5575
sVfeels
p2997
I1366
sVgrew
p2998
I1358
sVpretending
p2999
I5577
sVboils
p3000
I5200
sVduring
p3001
I1093
sVchimney
p3002
I5579
sVunderbred
p3003
I5580
sVperformers
p3004
I5581
sValteration
p3005
I5582
sVsacrifices
p3006
I5583
sVgloves
p3007
I2405
sVrecommendations
p3008
I1853
sV<eos>Should
p3009
I5584
sVbuyings
p3010
I5585
sVseventeen
p3011
I3454
sVpatriotism
p3012
I5587
sVthrowing
p3013
I5588
sVplausible
p3014
I5589
sVculture
p3015
I3675
sVclose
p3016
I1036
sVNeither
p3017
I3733
sV<eos>shark
p3018
I5591
sVprobable
p3019
I2069
sVpictures
p3020
I3676
sVPark
p3021
I5592
sVPart
p3022
I5593
sVprobably
p3023
I549
sVdoubly
p3024
I4223
sVIsabella
p3025
I394
sVunconscious
p3026
I3678
sVintending
p3027
I2921
sVoverrating
p3028
I5594
sVdistinguish
p3029
I3681
sVfluently
p3030
I5595
sVabruptly
p3031
I2070
sVboth
p3032
I290
sVMethodical
p3033
I5596
sVDorking
p3034
I5597
sVsecrets
p3035
I5598
sVSatisfied
p3036
I5599
sVadored
p3037
I5600
sVforgotten
p3038
I980
sVGraham
p3039
I5601
sVCertainly
p3040
I2071
sVheaded
p3041
I2879
sVaddress
p3042
I1854
sVmanners
p3043
I442
sVwhatever
p3044
I981
sVunfolded
p3045
I5602
sVlikes
p3046
I2072
sVvessel
p3047
I5603
sVWas
p3048
I1503
sVlikenesses
p3049
I5604
sVdescribed
p3050
I2880
sVdamp
p3051
I2073
sVMiddling
p3052
I5605
sVMost
p3053
I2881
sVcoarse
p3054
I3682
sVmaintenance
p3055
I3683
sVcollected
p3056
I1855
sVthreaten
p3057
I5606
sVdelights
p3058
I3684
sVdialogue
p3059
I3685
sVlived
p3060
I794
sVpartly
p3061
I5607
sVEspecially
p3062
I5608
sVelse
p3063
I294
sVrecalled
p3064
I3686
sVpractise
p3065
I2882
sVutmost
p3066
I1359
sVlook
p3067
I202
sVunpersuadable
p3068
I5609
sV<eos>really
p3069
I5610
sVpace
p3070
I2406
sVwhile
p3071
I225
sVmatch
p3072
I775
sVendanger
p3073
I5611
sVanimated
p3074
I2074
sVguide
p3075
I3687
sVpack
p3076
I5612
sVconfound
p3077
I5613
sVreads
p3078
I3688
sVready
p3079
I336
sVgrant
p3080
I3689
sVbelong
p3081
I1260
sVUnderstanding
p3082
I5614
sVExtraordinary
p3083
I5615
sVgrand
p3084
I2407
sVshan
p3085
I5616
sVcomposition
p3086
I5617
sVclearness
p3087
I2883
sVused
p3088
I434
sVtemporary
p3089
I3690
sVcensure
p3090
I1856
sV000
p3091
I3691
sVceremonious
p3092
I2884
sVSmallridge
p3093
I1360
sVolder
p3094
I2075
sVgrossly
p3095
I5618
sVbearer
p3096
I5619
sVshivering
p3097
I5620
sVgoings
p3098
I5621
sVincongruity
p3099
I5622
sVquarters
p3100
I3692
sVroasted
p3101
I5623
sVuseful
p3102
I885
sVprocrastinating
p3103
I5625
sVretirement
p3104
I2885
sVpetticoats
p3105
I5626
sV<eos>made
p3106
I5627
sVthroats
p3107
I5628
sVpies
p3108
I5629
sVquestioned
p3109
I2886
sVremaining
p3110
I2887
sVsoliloquy
p3111
I5630
sVdefies
p3112
I5631
sVcapacities
p3113
I5632
sVfollies
p3114
I6620
sVgame
p3115
I2888
sVwiser
p3116
I3825
sVpacing
p3117
I5635
sVponds
p3118
I3791
sVsuccess
p3119
I1683
sVsubmission
p3120
I2889
sVresorted
p3121
I5637
sVprovoking
p3122
I1857
sVhousekeeper
p3123
I1504
sVsoftness
p3124
I2890
sVminced
p3125
I5638
sVingratiating
p3126
I5639
sVFine
p3127
I5640
sVsketch
p3128
I2973
sVparade
p3129
I1858
sVfathers
p3130
I5642
sVcreation
p3131
I5643
sVsome
p3132
I117
sVurgent
p3133
I3693
sVlips
p3134
I2076
sVexperienced
p3135
I5644
sV28th
p3136
I5645
sV<eos>Patty
p3137
I5646
sVdelivered
p3138
I3694
sVdescribing
p3139
I3695
sVexceeding
p3140
I5647
sV<eos>_There_
p3141
I5648
sVconditionally
p3142
I5649
sVunexpensively
p3143
I5650
sVmeasures
p3144
I3696
sVeating
p3145
I2077
sVrub
p3146
I5651
sV_great_
p3147
I5922
sVstep
p3148
I1684
sVnegatives
p3149
I5652
sVlasts
p3150
I3697
sVbecome
p3151
I1243
sVabroad
p3152
I1685
sVshine
p3153
I5653
sVfaith
p3154
I2409
sVTaylor
p3155
I462
sVshewing
p3156
I1361
sVmisspent
p3157
I5654
sVCatherine
p3158
I5655
sVaye
p3159
I5656
sVsilence
p3160
I852
sVseeing
p3161
I417
sVwithin
p3162
I663
sVnonsense
p3163
I1094
sVsmells
p3164
I5657
sVbehaving
p3165
I2891
sV.)
p3166
I2410
sV.,
p3167
I1163
sVrenewal
p3168
I3698
sV."
p3169
I27
sVplacing
p3170
I3699
sVKitty
p3171
I5658
sV.'
p3172
I638
sVcaresses
p3173
I5659
sVheritage
p3174
I5660
sVconfessing
p3175
I2411
sVhimself
p3176
I170
sVMichaelmas
p3177
I5661
sVduly
p3178
I5662
sVproperly
p3179
I1686
sValive
p3180
I3256
sVdull
p3181
I1362
sVecstasies
p3182
I5664
sVpersisting
p3183
I3884
sVvacancies
p3184
I5665
sV<eos>Dancing
p3185
I5666
sVcommiseration
p3186
I5667
sVaccustomed
p3187
I3700
sVsimilar
p3188
I2892
sVordered
p3189
I1687
sVconvey
p3190
I2078
sVwilled
p3191
I5668
sV<eos>which
p3192
I5669
sVTo
p3193
I795
sV.'--`
p3194
I5670
sVBickerton
p3195
I5671
sVcotton
p3196
I3899
sVobjection
p3197
I1164
sVdashed
p3198
I3701
sVfears
p3199
I982
sV_doubts_
p3200
I6194
sVapplication
p3201
I2893
sVenquired
p3202
I5673
sV<eos>Man
p3203
I5674
sVpronouns
p3204
I5675
sVnay
p3205
I2414
sVwished
p3206
I517
sVsmiles
p3207
I1037
sVdraw
p3208
I1363
sVvisits
p3209
I1165
sVaverting
p3210
I2894
sVrested
p3211
I3702
sVsmiled
p3212
I1095
sVodious
p3213
I5676
sVrestrained
p3214
I3912
sVAh
p3215
I598
sVrequired
p3216
I1096
sVresolving
p3217
I2503
sVAn
p3218
I2895
sVAs
p3219
I1505
sV<eos>While
p3220
I900
sVAt
p3221
I1688
sVeverywhere
p3222
I2896
sVunderrated
p3223
I3703
sVrequires
p3224
I2897
sVrencontre
p3225
I2898
sV<eos>Selina
p3226
I2415
sVcheerful
p3227
I664
sVproposition
p3228
I3704
sVsixpence
p3229
I5679
sVgo
p3230
I199
sVarrogance
p3231
I3009
sV<eos>May
p3232
I5680
sVexcluded
p3233
I3705
sVNot
p3234
I817
sV<eos>Perfect
p3235
I5681
sVNow
p3236
I1689
sVartlessly
p3237
I5682
sVfriendly
p3238
I1038
sVprudence
p3239
I2416
sVfelicity
p3240
I1262
sV<eos>Name
p3241
I5683
sVtelling
p3242
I818
sVdiscouragement
p3243
I3706
sVrecollected
p3244
I2900
sVasparagus
p3245
I2901
sVinsuperable
p3246
I5684
sVcompassionate
p3247
I2417
sVnourishing
p3248
I4389
sVinspection
p3249
I5686
sV_were_
p3250
I5687
sVcomforts
p3251
I2079
sV<eos>Compare
p3252
I3707
sVLangham
p3253
I5688
sVwaking
p3254
I5689
sVjump
p3255
I3708
sVnoise
p3256
I2418
sVardent
p3257
I3709
sVlanguor
p3258
I3710
sV<eos>Soft
p3259
I5690
sVauspices
p3260
I5691
sVplays
p3261
I2902
sV_cause_
p3262
I5692
sV;
p3263
I10
sVcompletion
p3264
I5693
sVmelancholy
p3265
I1364
sVelect
p3266
I5624
sVfollowing
p3267
I1365
sVGreen
p3268
I5694
sVconceited
p3269
I2419
sVcoddling
p3270
I5695
sVhaunts
p3271
I5696
sVbenevolence
p3272
I2903
sVexamining
p3273
I3711
sVforesee
p3274
I5697
sVaddresses
p3275
I3712
sVdanger
p3276
I599
sVmanage
p3277
I2904
sVapprehensive
p3278
I2905
sVaddressed
p3279
I3713
sVwit
p3280
I1166
sVFrench
p3281
I5698
sVsinging
p3282
I2420
sVwitnessed
p3283
I2855
sVcloud
p3284
I5699
sVagreeably
p3285
I2080
sVremains
p3286
I2906
sVcongratulated
p3287
I3714
sV<eos>at
p3288
I2907
sV<eos>as
p3289
I3715
sVagreeable
p3290
I497
sVnoisy
p3291
I6618
sVcheeks
p3292
I2421
sVTunbridge
p3293
I5701
sVtreasuring
p3294
I5702
sVinconsiderate
p3295
I6619
sVstarted
p3296
I2908
sVbecomes
p3297
I3716
sVWednesday
p3298
I5703
sVcharming
p3299
I639
sVinattentive
p3300
I5704
sVunequalled
p3301
I5705
sVcrosser
p3302
I5706
sVannouncing
p3303
I2422
sVostler
p3304
I2081
sVride
p3305
I1913
sVcrossed
p3306
I2082
sVVIII
p3307
I3717
sVservants
p3308
I1263
sVvexatious
p3309
I5708
sVmeet
p3310
I665
sVdrops
p3311
I5709
sVdropt
p3312
I2423
sVadmirer
p3313
I2909
sVescaped
p3314
I2083
sVpromptitude
p3315
I5710
sVsought
p3316
I1859
sVwonderful
p3317
I1167
sVhesitate
p3318
I3718
sVarrangement
p3319
I983
sV<eos>That
p3320
I454
sVsentiments
p3321
I2084
sVdeplore
p3322
I3719
sVcircular
p3323
I5711
sVfare
p3324
I5712
sVentree
p3325
I5713
sVfarm
p3326
I2910
sVMrs
p3327
I48
sVfatigue
p3328
I3720
sVimparted
p3329
I3721
sVfetched
p3330
I5714
sVdebasement
p3331
I5715
sVWhile
p3332
I5576
sVbathing
p3333
I2424
sV<eos>During
p3334
I5716
sVSmith
p3335
I296
sVoffences
p3336
I3722
sV!"
p3337
I160
sVincluding
p3338
I2717
sVmentioned
p3339
I688
sV<eos>their
p3340
I3723
sVshewed
p3341
I1039
sV_Robin_
p3342
I5718
sVstout
p3343
I5719
sVhands
p3344
I901
sVfront
p3345
I2085
sVmasters
p3346
I5720
sVentitling
p3347
I5721
sVmoralising
p3348
I5722
sVmode
p3349
I5723
sV<eos>Being
p3350
I5724
sVpools
p3351
I5725
sVshaking
p3352
I2911
sVadventurous
p3353
I5726
sVabsenting
p3354
I3724
sV<eos>Manners
p3355
I5727
sVcommandingly
p3356
I5728
sVfemale
p3357
I1733
sVpursuits
p3358
I3725
sV<eos>Used
p3359
I5730
sVmeasure
p3360
I2086
sVseparating
p3361
I5731
sVsteadier
p3362
I5732
sVswayed
p3363
I6095
sVgallant
p3364
I1690
sVsecretly
p3365
I5734
sVentertainment
p3366
I2425
sV<eos>Those
p3367
I2912
sVLatterly
p3368
I5735
sVconfess
p3369
I1168
sVremiss
p3370
I2426
sVdepreciating
p3371
I5736
sVcustard
p3372
I5737
sVcause
p3373
I984
sVumbrella
p3374
I5738
sVattending
p3375
I1860
sVcompletely
p3376
I666
sV.,"
p3377
I5739
sV<eos>Let
p3378
I942
sVresumed
p3379
I1506
sVbefriended
p3380
I5740
sVpenknife
p3381
I5741
sVdeprecated
p3382
I5742
sVroute
p3383
I5743
sVunclosing
p3384
I6625
sVtimes
p3385
I777
sVkeen
p3386
I5744
sVinsensible
p3387
I3726
sVtimed
p3388
I5745
sVwholesomeness
p3389
I5746
sVpitied
p3390
I3727
sVpowerful
p3391
I2175
sVcramp
p3392
I5586
sVindisposed
p3393
I3728
sVimproving
p3394
I5749
sVseasonable
p3395
I5750
sVgloried
p3396
I5751
sVsignify
p3397
I2913
sVprecisely
p3398
I2087
sVquality
p3399
I3729
sVmanagement
p3400
I5752
sVbears
p3401
I5753
sVdurable
p3402
I5754
sVrelations
p3403
I2427
sVattach
p3404
I2428
sVattack
p3405
I2429
sVwrapped
p3406
I5755
sVperfectly
p3407
I379
sVfairest
p3408
I3730
sVprone
p3409
I5756
sVunsuspicious
p3410
I2430
sVexactly
p3411
I443
sVlists
p3412
I3731
sVherself
p3413
I114
sVexultingly
p3414
I5757
sVspurn
p3415
I5758
sVbeg
p3416
I1507
sVsubmitted
p3417
I1861
sVclaim
p3418
I1175
sVtransgression
p3419
I5759
sVinsignificance
p3420
I5760
sVdistinguished
p3421
I2914
sVdrunk
p3422
I7400
sVthwarted
p3423
I5761
sVunchanged
p3424
I5762
sVyielding
p3425
I5763
sVhorrors
p3426
I3732
sVportrait
p3427
I5764
sVneed
p3428
I455
sVconstrained
p3429
I5765
sVassurances
p3430
I2088
sVdespatch
p3431
I5590
sVdisengaged
p3432
I1508
sVpianoforte
p3433
I853
sVable
p3434
I307
sVinstance
p3435
I1367
sVsufficiency
p3436
I5766
sV_little_
p3437
I3867
sV<eos>Good
p3438
I2431
sVpassionately
p3439
I3734
sVintentions
p3440
I1862
sVconnected
p3441
I1509
sVpreparations
p3442
I5768
sVlectured
p3443
I5769
sVawe
p3444
I5770
sVreanimation
p3445
I5771
sVconsequences
p3446
I5772
sVspleen
p3447
I5773
sVoverhearing
p3448
I3735
sVastonishing
p3449
I2915
sVproceedings
p3450
I3736
sVenjoyments
p3451
I4123
sVaffair
p3452
I2190
sVwilful
p3453
I4129
sVcheerlessness
p3454
I5776
sV_your_
p3455
I2916
sVpartners
p3456
I5777
sVenvy
p3457
I2432
sVunfinished
p3458
I5778
sVearned
p3459
I5779
sV(
p3460
I268
sVbrighter
p3461
I3737
sVcameos
p3462
I5780
sVinherited
p3463
I3738
sVtune
p3464
I4461
sVemployed
p3465
I1510
sVgratify
p3466
I5782
sVrecollecting
p3467
I2917
sVjoint
p3468
I3739
sVmagistrate
p3469
I5783
sVItalian
p3470
I5784
sVconservatory
p3471
I5785
sV<eos>Upon
p3472
I1596
sVshy
p3473
I5786
sVshe
p3474
I15
sVwish
p3475
I195
sVImpossible
p3476
I3740
sVsolicitous
p3477
I2433
sVunfrequently
p3478
I5788
sVwidow
p3479
I2918
sVburying
p3480
I5789
sVpitch
p3481
I3741
sVorphan
p3482
I5790
sVaccused
p3483
I5791
sVusefulness
p3484
I5792
sVdesperate
p3485
I2919
sVluckiest
p3486
I2920
sVGood
p3487
I1170
sVsurmised
p3488
I3742
sVmissing
p3489
I3679
sVsouthward
p3490
I5793
sVtend
p3491
I5794
sVwritten
p3492
I902
sVconvince
p3493
I1643
sVcorrectly
p3494
I5796
sVhorrible
p3495
I2434
sVtens
p3496
I5797
sVneither
p3497
I689
sVsold
p3498
I2922
sVattention
p3499
I346
sVbound
p3500
I6919
sVconstituted
p3501
I7267
sVimportance
p3502
I1368
sVhurrying
p3503
I2089
sVinterfere
p3504
I3743
sVspared
p3505
I1863
sVmerry
p3506
I3744
sVreprobating
p3507
I3745
sVapproval
p3508
I5798
sVprecious
p3509
I1511
sVcareer
p3510
I5799
sVminds
p3511
I3746
sVadmit
p3512
I1692
sV_way_
p3513
I5800
sVestimation
p3514
I2925
sVcordial
p3515
I2435
sVOh
p3516
I163
sVhabitual
p3517
I5801
sVcompetent
p3518
I2926
sVagreed
p3519
I877
sVLow
p3520
I5802
sVkings
p3521
I3747
sVpoem
p3522
I4182
sVaddition
p3523
I1512
sVdiscrimination
p3524
I5803
sVthanked
p3525
I2090
sVimmense
p3526
I5804
sVslowly
p3527
I2436
sVtreat
p3528
I5805
sVmisapply
p3529
I5806
sVpoet
p3530
I5807
sVthanker
p3531
I5808
sVshoulders
p3532
I2928
sVsenses
p3533
I2929
sVcorresponding
p3534
I5809
sVleague
p3535
I5810
sVpiquet
p3536
I5811
sVAnd
p3537
I259
sV<eos>Every
p3538
I690
sVprosing
p3539
I5813
sV<eos>Hitherto
p3540
I5814
sV<eos>Once
p3541
I5815
sVconveying
p3542
I5816
sVresident
p3543
I5817
sVexamined
p3544
I3748
sVPretty
p3545
I5818
sVhearted
p3546
I1264
sVYou
p3547
I177
sVdignities
p3548
I5819
sVbegan
p3549
I359
sVcaptivated
p3550
I6107
sVBear
p3551
I5820
sV<eos>."
p3552
I5821
sVparts
p3553
I3749
sVincumbent
p3554
I3750
sVOxford
p3555
I5822
sVparty
p3556
I244
sVeccentric
p3557
I3751
sVappearances
p3558
I2930
sVeffect
p3559
I904
sVprivations
p3560
I2437
sVsarcastic
p3561
I4817
sVfrequently
p3562
I2091
sVMitchell
p3563
I5823
sVpoultry
p3564
I3753
sVscarcely
p3565
I905
sVtransaction
p3566
I5824
sVreflection
p3567
I943
sV<eos>Robert
p3568
I5825
sVobstacles
p3569
I5826
sVwell
p3570
I98
sVamends
p3571
I2438
sV<eos>Pray
p3572
I2092
sV<eos>this
p3573
I5827
sVrestore
p3574
I2931
sVtaller
p3575
I5828
sVliked
p3576
I1040
sVmistaken
p3577
I796
sVdetail
p3578
I3071
sVsources
p3579
I3754
sVSunday
p3580
I5829
sVdistant
p3581
I1369
sVskill
p3582
I2439
sVushered
p3583
I3755
sV<eos>Smiles
p3584
I5830
sV<eos>Happy
p3585
I4238
sV<eos>True
p3586
I3756
sVwarrant
p3587
I5831
sVBy
p3588
I2932
sVimpassable
p3589
I3757
sVample
p3590
I2441
sVdisappearance
p3591
I3758
sVcrushed
p3592
I5832
sVunseen
p3593
I2933
sVintimates
p3594
I3759
sVimmediately
p3595
I317
sVamply
p3596
I3760
sVprominent
p3597
I3761
sVloss
p3598
I819
sVEngland
p3599
I1693
sVlost
p3600
I944
sVswiftly
p3601
I5833
sVsized
p3602
I2934
sVlose
p3603
I985
sVpage
p3604
I3762
sVbelonged
p3605
I2093
sVinferiorities
p3606
I5834
sV<eos>Angry
p3607
I5835
sVhush
p3608
I2935
sVshew
p3609
I691
sVwarmer
p3610
I3763
sV_repentance_
p3611
I5836
sVhome
p3612
I189
sVliking
p3613
I2442
sVproofs
p3614
I2936
sVdrizzle
p3615
I5837
sVbroad
p3616
I1694
sVobjected
p3617
I3764
sVHowever
p3618
I2094
sVadventuring
p3619
I5838
sV?
p3620
I154
sVlimitations
p3621
I5839
sVreaching
p3622
I2443
sVpoignant
p3623
I3765
sVPilfering
p3624
I5840
sVfreedom
p3625
I3766
sVcompatible
p3626
I5841
sVtongue
p3627
I2095
sVpersuaded
p3628
I714
sVequally
p3629
I854
sVpreviously
p3630
I3767
sVvulgarity
p3631
I5842
sVarticulate
p3632
I5843
sVendeavours
p3633
I5844
sVutility
p3634
I5845
sVrejoice
p3635
I2444
sVadditional
p3636
I3768
sVinconstancy
p3637
I5846
sV<eos>Serious
p3638
I5847
sVunexamined
p3639
I5848
sVnorth
p3640
I3769
sVagrees
p3641
I7356
sVblaming
p3642
I5849
sVprophecies
p3643
I5850
sVstrawberries
p3644
I2937
sVgain
p3645
I2938
sVcourts
p3646
I5851
sVear
p3647
I3770
sVeat
p3648
I1370
sVhe
p3649
I21
sVgrieve
p3650
I3771
sVsigned
p3651
I5852
sVcruel
p3652
I2939
sVstories
p3653
I5853
sVempty
p3654
I5854
sVheiress
p3655
I5855
sVinquired
p3656
I3361
sVpiece
p3657
I1371
sVdisplay
p3658
I2940
sVurging
p3659
I5856
sVHymen
p3660
I5857
sVdevise
p3661
I5858
sVuniversal
p3662
I5859
sVkissed
p3663
I3772
sVShall
p3664
I5860
sVNever
p3665
I1864
sVsuspiciously
p3666
I3773
sVdisposing
p3667
I5861
sVblunders
p3668
I2096
sV<eos>Harriet
p3669
I323
sVgradations
p3670
I5862
sVstay
p3671
I498
sVN
p3672
I5863
sVfriends
p3673
I269
sVbaked
p3674
I1372
sV_man_
p3675
I5864
sVabhor
p3676
I5865
sVpoplin
p3677
I5866
sVportion
p3678
I2941
sVdetermination
p3679
I2445
sVsecondly
p3680
I5867
sVpardon
p3681
I1513
sVsimilarity
p3682
I5868
sVsashed
p3683
I5869
sV_His_
p3684
I5870
sVprotest
p3685
I1695
sVastray
p3686
I3774
sVwhose
p3687
I535
sVunfeeling
p3688
I3775
sVcalculate
p3689
I3776
sVsweetest
p3690
I3777
sVseriously
p3691
I1041
sVpresents
p3692
I3778
sVnominal
p3693
I5871
sVsorry
p3694
I367
sVStilton
p3695
I5872
sVMystery
p3696
I5873
sV_me_
p3697
I1696
sVrescue
p3698
I3779
sVmisunderstanding
p3699
I5874
sVaffect
p3700
I2097
sVcourageous
p3701
I5875
sVvast
p3702
I2098
sVbaking
p3703
I5876
sVclothed
p3704
I3780
sVlaurels
p3705
I5877
sVconvenience
p3706
I2099
sV<eos>united
p3707
I3781
sVdeplorable
p3708
I2942
sVgraces
p3709
I5878
sVclothes
p3710
I5879
sVidlest
p3711
I5880
sVforce
p3712
I1865
sVconcise
p3713
I3782
sVlikely
p3714
I516
sVsubordinate
p3715
I5881
sV<eos>Poverty
p3716
I4564
sVshrubberies
p3717
I3783
sVeven
p3718
I203
sVdesirous
p3719
I3784
sVintegrity
p3720
I5883
sVlights
p3721
I4414
sVnew
p3722
I561
sVever
p3723
I147
sVreviving
p3724
I5884
sVdeemed
p3725
I3785
sVrepugnance
p3726
I5885
sVnever
p3727
I90
sVdrew
p3728
I1866
sVmet
p3729
I589
sVBragges
p3730
I3786
sVactive
p3731
I2447
sVinterpret
p3732
I5886
sVdry
p3733
I2448
sVunexampled
p3734
I5887
sVcredit
p3735
I1042
sVpermit
p3736
I5888
sVsuitable
p3737
I3787
sVintrigue
p3738
I5889
sVeyebrows
p3739
I3788
sVreckoned
p3740
I5890
sVplea
p3741
I2697
sVslices
p3742
I5891
sVRather
p3743
I5892
sVcounty
p3744
I3789
sVninety
p3745
I3790
sVmoral
p3746
I5893
sVguests
p3747
I1697
sVparticularity
p3748
I5894
sVcomprised
p3749
I5895
sVoverhear
p3750
I5896
sVwatering
p3751
I2943
sVunsteadiness
p3752
I3554
sVcall
p3753
I550
sVcalm
p3754
I2449
sVrecommend
p3755
I855
sVinterruption
p3756
I5897
sVsurvive
p3757
I5898
sVtell
p3758
I299
sVlungs
p3759
I5899
sVexpose
p3760
I2944
sVwarm
p3761
I641
sVV
p3762
I3793
sVware
p3763
I4513
sVroom
p3764
I204
sVrights
p3765
I2945
sVinterposition
p3766
I5901
sV<eos>here
p3767
I3794
sVroot
p3768
I5902
sVdefer
p3769
I2100
sV_time_
p3770
I4535
sVgive
p3771
I165
sVassent
p3772
I2946
sVunpretending
p3773
I2947
sVadvancing
p3774
I5904
sVcolds
p3775
I2450
sVfaults
p3776
I1867
sVamazing
p3777
I2948
sVanswer
p3778
I333
sVminority
p3779
I5905
sVundergoing
p3780
I5906
sVreplacing
p3781
I5907
sVreconciled
p3782
I1514
sVindignity
p3783
I5908
sVcuriosity
p3784
I744
sV_they_
p3785
I5910
sVpurchase
p3786
I2101
sVattempt
p3787
I1043
sVthird
p3788
I2699
sVmaintain
p3789
I5912
sVfrequent
p3790
I2102
sV<eos>Thy
p3791
I3795
sVfirst
p3792
I138
sVoperations
p3793
I5913
sVemotion
p3794
I3797
sVforesaw
p3795
I3798
sVprofits
p3796
I3641
sVHetty
p3797
I3799
sV<eos>_I_
p3798
I5914
sV;"--
p3799
I2451
sVunsullied
p3800
I5915
sVwickedness
p3801
I3800
sVbefore
p3802
I122
sVpersonal
p3803
I1698
sV,
p3804
I0
sVbetter
p3805
I159
sVdifferently
p3806
I1265
sVBirth
p3807
I5916
sVchatty
p3808
I3801
sVweeks
p3809
I986
sVovercome
p3810
I1515
sVunemployed
p3811
I5917
sVporker
p3812
I5918
sVindulge
p3813
I1699
sVdownright
p3814
I2452
sVcautiousness
p3815
I5919
sVdoubtingly
p3816
I5920
sVIndeed
p3817
I1097
sVAgreed
p3818
I4692
sVleaned
p3819
I4695
sVroast
p3820
I2949
sVmounts
p3821
I5923
sVdulness
p3822
I2950
sVwent
p3823
I618
sVside
p3824
I331
sVbone
p3825
I5924
sVmean
p3826
I373
sVfathomed
p3827
I5925
sVafforded
p3828
I1700
sVcalmly
p3829
I2951
sVsuccessively
p3830
I5926
sVprinciples
p3831
I2454
sVtaught
p3832
I1868
sVforgot
p3833
I3802
sVaids
p3834
I5927
sVhospitable
p3835
I6616
sVconjectures
p3836
I2455
sVrestricted
p3837
I5928
sVCox
p3838
I2629
sVsurprise
p3839
I5929
sVsluggish
p3840
I5930
sVMust
p3841
I5931
sVgrease
p3842
I5932
sVturning
p3843
I856
sVascending
p3844
I5933
sVbestow
p3845
I3803
sVstruggle
p3846
I5934
sVmistress
p3847
I1516
sVNonsensical
p3848
I5935
sVsolitarily
p3849
I4600
sVBragge
p3850
I1701
sVprofessions
p3851
I2456
sVneedlework
p3852
I4766
sVTiresome
p3853
I7355
sVmoving
p3854
I1374
sVloud
p3855
I2103
sVpenury
p3856
I5937
sVslept
p3857
I5938
sVfeatures
p3858
I2104
sVTupman
p3859
I5939
sVcomforted
p3860
I5940
sVpeculiarity
p3861
I5941
sVhaunting
p3862
I5942
sVfeatured
p3863
I5943
sVdisappearing
p3864
I5944
sVenumerate
p3865
I5945
sVditch
p3866
I5946
sVhood
p3867
I5947
sVspeck
p3868
I5948
sVdwelt
p3869
I2457
sVabundantly
p3870
I5949
sVgirls
p3871
I1517
sVwitnessing
p3872
I5950
sVdwell
p3873
I2458
sVinvalids
p3874
I5951
sVcompunction
p3875
I5952
sVsolemnly
p3876
I5953
sV_woman_
p3877
I5954
sVgentlemanlike
p3878
I2953
sVregulate
p3879
I6379
sVsomewhat
p3880
I2954
sVrequisite
p3881
I2955
sVpeculiar
p3882
I2105
sVbegins
p3883
I3805
sVdistance
p3884
I692
sVcongratulatory
p3885
I3806
sVanxiety
p3886
I906
sVConsider
p3887
I5955
sVequalled
p3888
I7213
sVbitterness
p3889
I5957
sVpreparation
p3890
I2106
sVmatter
p3891
I642
sVlouder
p3892
I3077
sVsilly
p3893
I1266
sVmermaid
p3894
I3807
sVdeserving
p3895
I2459
sVbarouche
p3896
I2107
sVPicture
p3897
I5958
sVthreadbare
p3898
I5959
sV_try_
p3899
I5960
sVsuperadded
p3900
I5961
sVsees
p3901
I2956
sVmodern
p3902
I2957
sVmind
p3903
I190
sVmine
p3904
I820
sV<eos>--
p3905
I418
sVseen
p3906
I300
sVseem
p3907
I579
sVmagnified
p3908
I5962
sVseek
p3909
I1869
sVtells
p3910
I1376
sVcommunicative
p3911
I2958
sVniece
p3912
I821
sVVicarage
p3913
I1267
sVjustest
p3914
I5963
sVregular
p3915
I1171
sVinconsistency
p3916
I3808
sVassisting
p3917
I2959
sVdon
p3918
I1702
sVobservation
p3919
I1268
sValarm
p3920
I1044
sVpoints
p3921
I1870
sVprinciple
p3922
I2960
sV<eos>_Miss_
p3923
I5964
sVurgency
p3924
I3809
sVdiscontent
p3925
I5965
sVvisitor
p3926
I1871
sVretire
p3927
I5966
sVending
p3928
I3810
sVbrilliancy
p3929
I5967
sVattempts
p3930
I2460
sVuneasiness
p3931
I1518
sVsupplied
p3932
I2171
sVresisting
p3933
I4942
sVexplain
p3934
I2962
sVfolded
p3935
I5968
sVjudged
p3936
I1172
sVPembroke
p3937
I5969
sVstop
p3938
I1519
sVperceive
p3939
I1873
sV<eos>_He_
p3940
I5970
sVLeave
p3941
I5971
sVearn
p3942
I3811
sVbar
p3943
I5972
sVbad
p3944
I395
sVsoftly
p3945
I5973
sV<eos>John
p3946
I1874
sVunworthy
p3947
I1875
sVBella
p3948
I3812
sVblameless
p3949
I2963
sVdecided
p3950
I767
sVinterruptions
p3951
I5974
sVsubject
p3952
I253
sVsaid
p3953
I67
sVSomebody
p3954
I5975
sV<eos>Grandmama
p3955
I5976
sV<eos>Sorrow
p3956
I5977
sVlazy
p3957
I5020
sVcleverer
p3958
I2964
sVSwisserland
p3959
I2461
sVignorance
p3960
I2965
sVweary
p3961
I5028
sVcousin
p3962
I3813
sVmotto
p3963
I5980
sVYours
p3964
I5981
sVsuggested
p3965
I1876
sVuncertainty
p3966
I2329
sVagainst
p3967
I463
sVdistinction
p3968
I1377
sVcontribution
p3969
I5983
sVappeared
p3970
I451
sVincessant
p3971
I2966
sVForest
p3972
I3814
sVlowly
p3973
I5984
sVDating
p3974
I5985
sVapprehended
p3975
I5986
sVproceeded
p3976
I1269
sVrecur
p3977
I2782
sVbasis
p3978
I3816
sV_treasures_
p3979
I5987
sVthree
p3980
I360
sVparticulars
p3981
I1270
sVcommission
p3982
I2462
sVinterest
p3983
I474
sVentered
p3984
I857
sVlovely
p3985
I1378
sVthrew
p3986
I3817
sVdeeper
p3987
I3818
sVprosperous
p3988
I2463
sVsuppress
p3989
I5988
sVpersonally
p3990
I5989
sVregretted
p3991
I2108
sVexception
p3992
I2464
sVsly
p3993
I2967
sVaffirm
p3994
I5990
sVnear
p3995
I464
sVsuppose
p3996
I312
sVbalance
p3997
I5991
sVstudy
p3998
I2109
sVseven
p3999
I2110
sVridicule
p4000
I5992
sVmanoeuvring
p4001
I5993
sVis
p4002
I25
sVit
p4003
I13
sVshame
p4004
I1703
sVsplendour
p4005
I3819
sVin
p4006
I11
sVNay
p4007
I2968
sVif
p4008
I83
sVgrown
p4009
I1520
sVparish
p4010
I1704
sVmake
p4011
I166
sVunfortunate
p4012
I1877
sVgrows
p4013
I5994
sVentitled
p4014
I3820
sVmeets
p4015
I5995
sVVI
p4016
I2969
sVdeclaring
p4017
I5996
sVsolicitudes
p4018
I4731
sVdelight
p4019
I1045
sVundaunted
p4020
I5998
sVscale
p4021
I5999
sVsupposing
p4022
I1878
sVjealous
p4023
I2970
sVopportunity
p4024
I1098
sVthoughts
p4025
I536
sVbutter
p4026
I3821
sVweakly
p4027
I6000
sVchanges
p4028
I6674
sVfailing
p4029
I6001
sVunconcerned
p4030
I3822
sVapprobation
p4031
I693
sVresuming
p4032
I3823
sVqualities
p4033
I2111
sVclaims
p4034
I797
sVAbominable
p4035
I6002
sV_did_
p4036
I6003
sVyours
p4037
I2971
sVleft
p4038
I403
sV_May_
p4039
I3824
sVjust
p4040
I164
sVsentence
p4041
I2465
sVwarmest
p4042
I1879
sVdearly
p4043
I5634
sVunfair
p4044
I2466
sVverses
p4045
I3826
sV<eos>Here
p4046
I1379
sVhuman
p4047
I1705
sVfacts
p4048
I6004
sVyes
p4049
I907
sVyet
p4050
I224
sVimpending
p4051
I6005
sV<eos>Its
p4052
I2972
sVinfinitely
p4053
I1380
sVregarded
p4054
I3533
sVcharacter
p4055
I444
sVmagistrates
p4056
I6007
sVartlessness
p4057
I6008
sVsave
p4058
I2112
sVtrimming
p4059
I6009
sVboasted
p4060
I3827
sVinvoluntary
p4061
I6010
sVwhichever
p4062
I6011
sVdiscreet
p4063
I6012
sVbackground
p4064
I6013
sVdestroy
p4065
I2550
sVdreamt
p4066
I6015
sVvanity
p4067
I1099
sVshoulder
p4068
I6016
sVdignity
p4069
I2113
sVvisible
p4070
I3828
sVunnecessary
p4071
I1521
sVAre
p4072
I2467
sVdeal
p4073
I241
sVcreditably
p4074
I6017
sVdeaf
p4075
I2468
sVsomehow
p4076
I2469
sVdead
p4077
I3558
sVdear
p4078
I139
sVpain
p4079
I620
sVNobody
p4080
I1706
sVQuite
p4081
I1880
sVsyllable
p4082
I1381
sVdispelled
p4083
I5295
sV<eos>go
p4084
I6019
sVcarte
p4085
I6020
sVnovelties
p4086
I6021
sV<eos>Exactly
p4087
I3830
sVburn
p4088
I3831
sVwept
p4089
I6022
sVconceal
p4090
I1707
sVflourishes
p4091
I3832
sVafternoon
p4092
I2114
sVcommit
p4093
I3833
sVthinner
p4094
I6023
sVsheets
p4095
I6024
sVformerly
p4096
I3834
sVamounted
p4097
I6025
sVLittle
p4098
I5641
sVintellectual
p4099
I3835
sVdown
p4100
I329
sVcomplaints
p4101
I3977
sVnarration
p4102
I4894
sVerrs
p4103
I6027
sVrefined
p4104
I2974
sVStay
p4105
I6028
sVfrightened
p4106
I1382
sVannoyance
p4107
I6029
sVamazingly
p4108
I6030
sVflying
p4109
I6031
sVjealousy
p4110
I2115
sVprodigies
p4111
I6032
sVform
p4112
I940
sVJanuary
p4113
I2470
sVfore
p4114
I6033
sVfeminine
p4115
I6034
sVprettily
p4116
I2975
sVblindness
p4117
I1882
sVsurrender
p4118
I6035
sVassented
p4119
I6036
sVevinced
p4120
I6037
sVcontinuance
p4121
I3837
sVhappen
p4122
I1158
sVpretension
p4123
I4250
sVattached
p4124
I746
sVbounds
p4125
I6038
sVunvarying
p4126
I6039
sVrelic
p4127
I6040
sV_married_
p4128
I6041
sVdamps
p4129
I6042
sVtemper
p4130
I562
sVoriginating
p4131
I6043
sVabusing
p4132
I3492
sVexerting
p4133
I6044
sVdrive
p4134
I1383
sV<eos>Read
p4135
I6045
sVfashioned
p4136
I3838
sV<eos>Real
p4137
I6046
sVmarking
p4138
I2977
sVagreeing
p4139
I2471
sVgenerally
p4140
I715
sVhanded
p4141
I2472
sVpitifullest
p4142
I6047
sVvisitings
p4143
I6048
sV<eos>Human
p4144
I6049
sVmisinterpreted
p4145
I3839
sVdies
p4146
I3840
sVfelt
p4147
I220
sVdiet
p4148
I6050
sVunwell
p4149
I1708
sVfell
p4150
I1257
sVdied
p4151
I3841
sVhappening
p4152
I2473
sVapology
p4153
I2116
sVassume
p4154
I6051
sVblushing
p4155
I2978
sVdaily
p4156
I1522
sVparcels
p4157
I3842
sVrestored
p4158
I2117
sVprecise
p4159
I3881
sVdiscreetly
p4160
I6052
sV<eos>Be
p4161
I2474
sVeldest
p4162
I1883
sVinvent
p4163
I6053
sVmild
p4164
I2475
sVmile
p4165
I1710
sV<eos>By
p4166
I1384
sVanticipation
p4167
I6054
sVdepend
p4168
I1100
sVfancies
p4169
I6055
sVExactly
p4170
I2476
sVfather
p4171
I149
sV_that_
p4172
I1385
sVanswered
p4173
I909
sVunpleasant
p4174
I1035
sV<eos>she
p4175
I987
sVsuffered
p4176
I1884
sVfancied
p4177
I1386
sVabundance
p4178
I3843
sVstring
p4179
I3844
sVplaister
p4180
I1885
sVcongratulating
p4181
I3845
sVadvised
p4182
I2979
sVma
p4183
I1523
sVWhere
p4184
I2478
sVbanished
p4185
I6056
sVelevate
p4186
I3883
sVdid
p4187
I94
sVdie
p4188
I2479
sVproposals
p4189
I2980
sVaccidentally
p4190
I6058
sVtravels
p4191
I6059
sVexcellence
p4192
I2480
sVunevenness
p4193
I6060
sVgentlewoman
p4194
I3846
sVround
p4195
I551
sVtalked
p4196
I350
sVfearing
p4197
I6061
sVdealing
p4198
I3847
sVRomance
p4199
I3848
sVtalker
p4200
I2481
sVrun
p4201
I1046
sVMilmans
p4202
I6062
sVfavour
p4203
I716
sVsuspect
p4204
I910
sVundesignedly
p4205
I6063
sVfilled
p4206
I3849
sV_marry_
p4207
I6064
sVinvoluntarily
p4208
I3850
sVdeceit
p4209
I6065
sVimplanted
p4210
I6066
sV_will_
p4211
I2981
sVwait
p4212
I768
sVbox
p4213
I2118
sVboy
p4214
I1174
sVenvirons
p4215
I6067
sVinstitute
p4216
I6068
sVshift
p4217
I6069
sVbow
p4218
I2482
sVspheres
p4219
I6070
sVsuggestion
p4220
I3851
sVconveniently
p4221
I3852
sVquarrel
p4222
I1886
sVhither
p4223
I3853
sVinsolent
p4224
I2982
sV_named_
p4225
I6071
sVmerely
p4226
I643
sVWhen
p4227
I1101
sVwealth
p4228
I1711
sVsalting
p4229
I6072
sVsake
p4230
I798
sVstoops
p4231
I3854
sVjoyous
p4232
I3855
sVvisit
p4233
I262
sVcomplaisant
p4234
I6073
sVpert
p4235
I3856
sVlessened
p4236
I6074
sVsharing
p4237
I6075
sVrepast
p4238
I6076
sVcondescension
p4239
I3857
sVacceptable
p4240
I1887
sVBeg
p4241
I6077
sV<eos>Call
p4242
I6078
sV----
p4243
I6079
sVuppermost
p4244
I6080
sVcautious
p4245
I1888
sVolive
p4246
I6081
sVeffort
p4247
I2483
sVentreaties
p4248
I1889
sVfly
p4249
I2983
sVavoiding
p4250
I2484
sVsoul
p4251
I3858
sVult
p4252
I6082
sVBath
p4253
I858
sVsour
p4254
I6083
sVgrowing
p4255
I1102
sVmaking
p4256
I411
sVarrive
p4257
I2485
sVChildren
p4258
I6084
sV_any_
p4259
I6085
sVnearest
p4260
I4707
sVpredict
p4261
I3859
sVconfused
p4262
I3860
sVsample
p4263
I6086
sVpointedly
p4264
I3861
sVcouncil
p4265
I3862
sVjumble
p4266
I6686
sVmuslins
p4267
I6088
sVpink
p4268
I6089
sV<eos>where
p4269
I6090
sVrecited
p4270
I7235
sVstrikingly
p4271
I6092
sVtill
p4272
I242
sVpure
p4273
I6093
sVassistant
p4274
I6094
sVpersuasion
p4275
I1176
sVstaying
p4276
I1177
sVmat
p4277
I5733
sVmay
p4278
I140
sVmad
p4279
I1387
sVscalloped
p4280
I6096
sVgrow
p4281
I1524
sVman
p4282
I129
sVdeposit
p4283
I6097
sVdeceive
p4284
I2984
sVbasket
p4285
I3863
sVtall
p4286
I1388
sVtalk
p4287
I351
sVunconsciously
p4288
I6098
sVshoes
p4289
I3864
sVdisclosure
p4290
I6099
sVtranscribing
p4291
I5416
sVgradual
p4292
I6100
sVpointed
p4293
I2985
sVavailing
p4294
I6101
sVwishing
p4295
I911
sVstability
p4296
I3865
sVintroductions
p4297
I6102
sVgaieties
p4298
I6103
sVshake
p4299
I1525
sVargued
p4300
I6104
sV<eos>Your
p4301
I1047
sVirresolute
p4302
I3866
sVgroup
p4303
I6105
sVthank
p4304
I859
sVinteresting
p4305
I667
sVclearest
p4306
I6106
sVmaid
p4307
I1389
sVours
p4308
I2119
sVmain
p4309
I3868
sVviews
p4310
I903
sVsooner
p4311
I1271
sV<eos>Weston
p4312
I1048
sVtouching
p4313
I3869
sVShe
p4314
I221
sVTheodore
p4315
I6108
sVkilled
p4316
I2486
sVpossess
p4317
I3870
sVfeverish
p4318
I6109
sVcareless
p4319
I3871
sV_him_
p4320
I1272
sVshews
p4321
I2986
sVrichly
p4322
I3873
sVshewn
p4323
I1273
sVgirl
p4324
I435
sVrequesting
p4325
I6110
sVliving
p4326
I860
sVOtways
p4327
I6111
sVinterference
p4328
I1712
sVmiles
p4329
I1104
sVcorrect
p4330
I2487
sVassurance
p4331
I1890
sVearlier
p4332
I1526
sVmercantile
p4333
I6112
sV_we_
p4334
I2488
sVwalnuts
p4335
I6113
sVmusing
p4336
I3874
sVgrandmama
p4337
I1103
sVajar
p4338
I6114
sV<eos>Without
p4339
I2988
sVcough
p4340
I3875
sVadvance
p4341
I3876
sVlanguage
p4342
I1527
sVBeing
p4343
I6115
sVcontented
p4344
I1891
sVthing
p4345
I80
sVthink
p4346
I82
sVwaited
p4347
I2489
sVAdelaide
p4348
I3796
sVcheese
p4349
I6116
sVdwelling
p4350
I6117
sVXIII
p4351
I6118
sVlong
p4352
I191
sVcarry
p4353
I2490
sVsounds
p4354
I6119
sVdischarged
p4355
I6120
sVinterchange
p4356
I6121
sVlittle
p4357
I92
sVthoughtless
p4358
I2491
sV<eos>it
p4359
I2989
sV<eos>in
p4360
I6122
sVTupmans
p4361
I6123
sV<eos>if
p4362
I2492
sVspeaking
p4363
I465
sVeyes
p4364
I404
sVdeafer
p4365
I6124
sVDirty
p4366
I6125
sVoddities
p4367
I7242
sVstipulation
p4368
I6127
sVundoubtedly
p4369
I1274
sV<eos>Would
p4370
I2990
sV10
p4371
I3877
sVprepossession
p4372
I6693
sVprotected
p4373
I6129
sVknives
p4374
I6130
sVventure
p4375
I1528
sVwere
p4376
I46
sVretort
p4377
I6131
sVtopics
p4378
I2991
sVvoices
p4379
I3878
sVoccupied
p4380
I945
sV<eos>This
p4381
I301
sVglibly
p4382
I6132
sVDo
p4383
I861
sVclung
p4384
I6133
sVanswering
p4385
I2992
sVshocked
p4386
I2120
sVwretch
p4387
I3879
sVperformance
p4388
I2121
sVDr
p4389
I6134
sVchannel
p4390
I6135
sVflattered
p4391
I2993
sVamiable
p4392
I619
sV<eos>Wrapt
p4393
I6136
sVpaid
p4394
I822
sVroused
p4395
I4071
sVflatterer
p4396
I3880
sVpair
p4397
I1713
sVhardships
p4398
I6137
sVCHURCHILL
p4399
I6138
sVespecially
p4400
I946
sVsurprising
p4401
I6139
sValarming
p4402
I2122
sV_unreasonable_
p4403
I6140
sV.]
p4404
I5663
sVshop
p4405
I1709
sVshow
p4406
I3882
sV<eos>Six
p4407
I6141
sVsupposition
p4408
I6142
sVfervour
p4409
I6143
sVKnightleys
p4410
I2224
sVaccepting
p4411
I2302
sVshod
p4412
I6144
sVdrawings
p4413
I2995
sVcorner
p4414
I2123
sVcurled
p4415
I6145
sVWe
p4416
I747
sV<eos>Impossible
p4417
I6146
sVstormy
p4418
I6147
sVCampbells
p4419
I748
sVtreasure
p4420
I6148
sVbehind
p4421
I862
sVblack
p4422
I2124
sVmuffin
p4423
I6149
sVplump
p4424
I6150
sVexaggeration
p4425
I5358
sVget
p4426
I343
sVIrish
p4427
I2412
sVslyness
p4428
I6152
sVnearly
p4429
I1275
sVdistinctly
p4430
I2996
sVdesirableness
p4431
I6153
sVsecondary
p4432
I3885
sVlame
p4433
I6488
sVbusiest
p4434
I6154
sVyield
p4435
I2997
sVmorning
p4436
I222
sVstupid
p4437
I2987
sVgammon
p4438
I6155
sVfinishing
p4439
I6156
sVcommunicated
p4440
I2125
sVsilently
p4441
I6157
sVdeclared
p4442
I2493
sVhonesty
p4443
I6158
sV<eos>Do
p4444
I538
sVseas
p4445
I2998
sVseat
p4446
I1178
sVrelative
p4447
I2126
sVdoings
p4448
I6159
sVdeclares
p4449
I3886
sV<eos>Dr
p4450
I6160
sVwonder
p4451
I466
sVornament
p4452
I6161
sVenough
p4453
I185
sVcautiously
p4454
I6162
sVreading
p4455
I1105
sVacross
p4456
I1893
sVwhispered
p4457
I3887
sVparent
p4458
I3888
sVpained
p4459
I6163
sVcountenance
p4460
I1390
sV<eos>Decidedly
p4461
I6164
sVaccording
p4462
I3889
sVtour
p4463
I3890
sVdisappointment
p4464
I863
sVdoatingly
p4465
I6165
sVreigns
p4466
I3891
sVamong
p4467
I445
sVdespaired
p4468
I6166
sVaccusation
p4469
I6167
sVmaintained
p4470
I2494
sVwriting
p4471
I1118
sVabruptness
p4472
I6168
sVconsidering
p4473
I1049
sVsensible
p4474
I823
sVunusual
p4475
I2495
sV_Most_
p4476
I6169
sVcapable
p4477
I2127
sVsufferable
p4478
I6170
sVmark
p4479
I3911
sVaimable
p4480
I6172
sVjudging
p4481
I1276
sVemployments
p4482
I6173
sVeducated
p4483
I3892
sVshopping
p4484
I6174
sVmeasles
p4485
I2496
sVoffered
p4486
I1894
sV<eos>Ladies
p4487
I3893
sVdeclaration
p4488
I1895
sVthose
p4489
I260
sVsound
p4490
I1714
sVapologised
p4491
I6175
sV_first_
p4492
I3894
sVdivined
p4493
I6176
sVresidence
p4494
I3895
sVawakened
p4495
I6177
sVVenice
p4496
I6178
sVeventually
p4497
I6179
sVsincere
p4498
I2497
sVcoffee
p4499
I3896
sVsleeping
p4500
I2510
sVmiddle
p4501
I1391
sVsudden
p4502
I989
sVeveryday
p4503
I3897
sVmovements
p4504
I6181
sVdifferent
p4505
I467
sVvagaries
p4506
I6182
sVpay
p4507
I769
sVsame
p4508
I233
sVtautology
p4509
I6183
sVnicety
p4510
I6184
sVspeech
p4511
I912
sVarguments
p4512
I6185
sVcontain
p4513
I5787
sVdeference
p4514
I3898
sVsurmise
p4515
I2413
sVpan
p4516
I6186
sVunperceived
p4517
I3900
sVextended
p4518
I6187
sVFinesse
p4519
I6188
sVassist
p4520
I1179
sVcompanion
p4521
I694
sV<eos>Trust
p4522
I6189
sVrunning
p4523
I2498
sVscorned
p4524
I6190
sVtotally
p4525
I1180
sVdrain
p4526
I6191
sVrepulsive
p4527
I6192
sVamazed
p4528
I2499
sVgates
p4529
I2500
sVdiffident
p4530
I3901
sVmoney
p4531
I1392
sVsights
p4532
I6193
sV<eos>thought
p4533
I3902
sVdespoiling
p4534
I6195
sVsuitableness
p4535
I6196
sVastonishment
p4536
I2128
sVextensive
p4537
I3903
sV<eos>Their
p4538
I1529
sVsecrecy
p4539
I2999
sV<eos>Charming
p4540
I6197
sVdisappointed
p4541
I824
sVfondling
p4542
I6198
sVbewitches
p4543
I6199
sVacquainted
p4544
I644
sVgossips
p4545
I6200
sVindisputable
p4546
I6201
sVfacing
p4547
I6202
sVchamber
p4548
I3904
sVLondon
p4549
I456
sVeither
p4550
I335
sVvoluntarily
p4551
I2501
sVpronounce
p4552
I3905
sVslavery
p4553
I6203
sV_times_
p4554
I6204
sVcivilly
p4555
I3906
sVgross
p4556
I6205
sVmortification
p4557
I1181
sVconfirm
p4558
I6206
sVfooting
p4559
I3000
sVcritical
p4560
I3907
sVexpressing
p4561
I1896
sVmoderate
p4562
I2129
sVknife
p4563
I6207
sVreticule
p4564
I6208
sVmeasuring
p4565
I6209
sVmare
p4566
I3908
sVseconds
p4567
I6210
sV:'--
p4568
I3909
sVbroken
p4569
I3001
sVpenitence
p4570
I6211
sVpretended
p4571
I6212
sVconducting
p4572
I6213
sV_his_
p4573
I2502
sVviolence
p4574
I6214
sVhelpmate
p4575
I6215
sVmixed
p4576
I2156
sVroad
p4577
I990
sVquietly
p4578
I1715
sVspreading
p4579
I6217
sVbountiful
p4580
I3910
sVblessed
p4581
I2130
sVwhiten
p4582
I6218
sVshortening
p4583
I6171
sVIndignation
p4584
I6219
sVbreath
p4585
I3326
sVacquiesced
p4586
I6221
sVshells
p4587
I6222
sVheroine
p4588
I5677
sVdecisive
p4589
I2131
sVmornings
p4590
I6223
sV<eos>Dining
p4591
I6224
sVlodgings
p4592
I6225
sVmotherly
p4593
I6226
sVstrikes
p4594
I3002
sV<eos>Instead
p4595
I3913
sVdownstairs
p4596
I3003
sVarranged
p4597
I1530
sVdrills
p4598
I6227
sVpoison
p4599
I3265
sVpowerless
p4600
I6229
sVaffection
p4601
I405
sVdawdling
p4602
I6230
sVconundrum
p4603
I3914
sVAm
p4604
I5678
sVdeep
p4605
I1106
sVgeneral
p4606
I380
sVimagination
p4607
I1393
sVexamine
p4608
I3915
sVdeem
p4609
I3916
sVdeed
p4610
I6231
sVfill
p4611
I6232
sVagain
p4612
I136
sVpensive
p4613
I6233
sVsufferings
p4614
I3004
sVrepent
p4615
I1897
sVfield
p4616
I3917
sVfruitless
p4617
I6234
sV_nearer_
p4618
I6235
sVshelter
p4619
I6236
sVderiving
p4620
I6237
sVimportant
p4621
I825
sVprudent
p4622
I3918
sVremote
p4623
I6238
sV<eos>Either
p4624
I3919
sVsullenness
p4625
I6239
sVresolution
p4626
I668
sVrepresent
p4627
I6240
sVforget
p4628
I695
sVreproofs
p4629
I6241
sVinvariable
p4630
I6242
sVsunk
p4631
I1278
sVtalks
p4632
I2504
sVexpressions
p4633
I1898
sVallowances
p4634
I3005
sVsung
p4635
I3920
sVreluctant
p4636
I6243
sV<eos>Emma
p4637
I130
sVdiffuse
p4638
I4664
sVpreserved
p4639
I2505
sVtranquillity
p4640
I2132
sVenjoying
p4641
I3006
sVcontroul
p4642
I6245
sVturnips
p4643
I6246
sVparcel
p4644
I1716
sVstraightforward
p4645
I6247
sVreturning
p4646
I1056
sVfall
p4647
I1394
sVdifference
p4648
I580
sVvouchsafe
p4649
I3921
sVwashing
p4650
I6248
sVbenevolent
p4651
I3922
sVunsuspected
p4652
I3923
sVreminding
p4653
I6249
sVgang
p4654
I7264
sVdesignedly
p4655
I6250
sV<eos>Fortunately
p4656
I3925
sVActually
p4657
I6251
sVOnly
p4658
I1717
sVlawyer
p4659
I3926
sVaffectation
p4660
I6252
sVaffable
p4661
I6253
sVappreciating
p4662
I6254
sVribbon
p4663
I2506
sVcreatures
p4664
I1899
sVdefence
p4665
I3927
sVstood
p4666
I1279
sVsweetly
p4667
I3928
sVnovitiate
p4668
I6255
sVstoop
p4669
I3929
sVjudicious
p4670
I3007
sV<eos>Except
p4671
I5504
sVtribute
p4672
I6256
sVpublic
p4673
I1531
sVK
p4674
I6258
sVpromising
p4675
I3930
sVfavourably
p4676
I3931
sVmule
p4677
I6259
sVfavourable
p4678
I1183
sVinconsiderable
p4679
I3932
sVaffectionately
p4680
I6260
sV<eos>Dixon
p4681
I3008
sVstandard
p4682
I6261
sVPatty
p4683
I1280
sVspeeches
p4684
I3933
sVenmity
p4685
I6262
sVstretching
p4686
I6263
sVClara
p4687
I6264
sVmisery
p4688
I1184
sVnarrow
p4689
I2507
sV<eos>Sighs
p4690
I6265
sVforcibly
p4691
I6266
sVsanction
p4692
I2508
sVsuits
p4693
I2899
sVestablish
p4694
I6267
sVdetecting
p4695
I6268
sVreadily
p4696
I1718
sVeye
p4697
I600
sVcomposure
p4698
I2509
sVdistinct
p4699
I1281
sVdestination
p4700
I3934
sVtwo
p4701
I161
sVcomparing
p4702
I6269
sVrestraints
p4703
I6270
sVhandsomely
p4704
I3935
sVpurse
p4705
I2705
sVbrisk
p4706
I6271
sVlanded
p4707
I6273
sVparticular
p4708
I552
sVdestin
p4709
I6180
sVnineteen
p4710
I6274
sVtown
p4711
I770
sVnone
p4712
I696
sVhour
p4713
I291
sVrecall
p4714
I3936
sV<eos>Books
p4715
I6275
sVremain
p4716
I1185
sVpressing
p4717
I1900
sV<eos>Whatever
p4718
I6276
sVcompare
p4719
I2584
sVconniving
p4720
I6277
sVgravely
p4721
I2511
sVshare
p4722
I1186
sVsphere
p4723
I6278
sVbreathing
p4724
I6279
sVnumbers
p4725
I1719
sVpurchased
p4726
I6280
sVsharp
p4727
I4142
sV!
p4728
I56
sVneeds
p4729
I3937
sVawkward
p4730
I1282
sVcomfort
p4731
I334
sVmaps
p4732
I6281
sVstir
p4733
I1901
sVchusing
p4734
I6282
sVDon
p4735
I6283
sVadvice
p4736
I1720
sVblood
p4737
I3010
sVcoming
p4738
I272
sVbloom
p4739
I3011
sVbleak
p4740
I6284
sVreappeared
p4741
I3012
sVorchard
p4742
I6285
sVcrowded
p4743
I3938
sVeats
p4744
I3939
sVblunder
p4745
I1902
sVdeserted
p4746
I6286
sVfondest
p4747
I6287
sVwishes
p4748
I826
sVpleasure
p4749
I208
sVplaying
p4750
I2134
sVexcepted
p4751
I6288
sVinfant
p4752
I3940
sVfinessing
p4753
I6289
sVheartfelt
p4754
I6290
sVthrough
p4755
I381
sVexistence
p4756
I1721
sVsuffer
p4757
I1187
sVpent
p4758
I6291
sVbosom
p4759
I6292
sVlate
p4760
I913
sVdetected
p4761
I3013
sVmisunderstandings
p4762
I2512
sVattractions
p4763
I6715
sVhurting
p4764
I6295
sVgood
p4765
I95
sVseeking
p4766
I6296
sVnoticing
p4767
I3014
sVprejudices
p4768
I6297
sV<eos>High
p4769
I5194
sVprejudiced
p4770
I3942
sVcomplain
p4771
I3135
sVmystery
p4772
I2513
sVeasily
p4773
I1283
sVdivested
p4774
I6299
sVfluttered
p4775
I6300
sVhabits
p4776
I1188
sV_half_
p4777
I6301
sVrepeating
p4778
I3943
sVstomacher
p4779
I6302
sVbiscuits
p4780
I3944
sVexquisite
p4781
I1903
sVharm
p4782
I1284
sVmental
p4783
I3945
sVhouse
p4784
I254
sVfish
p4785
I3946
sVhard
p4786
I1532
sVidea
p4787
I226
sVengaging
p4788
I2135
sVconnect
p4789
I3947
sVsuspecting
p4790
I2136
sVallusions
p4791
I6303
sVharp
p4792
I3948
sVmustered
p4793
I6304
sVlovers
p4794
I3949
sV<eos>Martin
p4795
I3950
sVpigeon
p4796
I6305
sVprojected
p4797
I6306
sVacting
p4798
I2514
sV_source_
p4799
I6307
sVfortitude
p4800
I2515
sVtiresome
p4801
I1722
sVhenceforward
p4802
I6308
sVcircumstance
p4803
I563
sV_housebreaking_
p4804
I6309
sVpleasant
p4805
I564
sVdifficulty
p4806
I601
sVcontrivance
p4807
I6310
sVdisposition
p4808
I799
sV<eos>Delightful
p4809
I6311
sVbeginning
p4810
I565
sVEm
p4811
I6312
sVindebted
p4812
I3015
sVembraces
p4813
I6313
sV_was_
p4814
I3951
sVinstances
p4815
I3952
sVdone
p4816
I180
sV<eos>Never
p4817
I3953
sVGilbert
p4818
I3016
sVindulgent
p4819
I6314
sVtwenty
p4820
I645
sVentreated
p4821
I2516
sVleast
p4822
I270
sVrobe
p4823
I6315
sVpains
p4824
I1395
sVmama
p4825
I3017
sVsmoothed
p4826
I6316
sVunpardonably
p4827
I6317
sVXI
p4828
I3018
sVdraper
p4829
I3019
sVtremblings
p4830
I6318
sV<eos>Whether
p4831
I6319
sVdentist
p4832
I6320
sVpart
p4833
I324
sVdrunkenness
p4834
I6321
sVbelieve
p4835
I227
sVXV
p4836
I4227
sVunpardonable
p4837
I3020
sVsupposes
p4838
I6323
sVcompliments
p4839
I1107
sV<eos>and
p4840
I771
sVyouth
p4841
I1396
sV_a_
p4842
I6325
sVcontrary
p4843
I2137
sVsupposed
p4844
I602
sVsedate
p4845
I6326
sVteazed
p4846
I6327
sV_______
p4847
I6328
sVtreated
p4848
I2138
sVdeclare
p4849
I1108
sVconsented
p4850
I6329
sVtrifles
p4851
I3955
sVages
p4852
I3956
sV<eos>Donwell
p4853
I3957
sV<eos>Richard
p4854
I3958
sVorders
p4855
I6330
sV<eos>Bless
p4856
I6331
sVbuilt
p4857
I3021
sVdancing
p4858
I566
sVconquering
p4859
I6332
sVbuild
p4860
I6333
sVinsufferable
p4861
I2139
sVprovince
p4862
I6334
sVMartins
p4863
I1189
sVeggs
p4864
I3959
sVpondering
p4865
I3960
sVmost
p4866
I120
sVcharm
p4867
I1397
sVsignificant
p4868
I3961
sVservices
p4869
I6335
sV_each_
p4870
I6336
sVengagements
p4871
I1533
sVextremely
p4872
I344
sVgoodwill
p4873
I2140
sVcharitable
p4874
I2517
sVreflections
p4875
I3962
sVnobility
p4876
I6337
sVjoining
p4877
I3963
sV<eos>ma
p4878
I6338
sV_amor_
p4879
I6339
sVparticularly
p4880
I468
sVcommissions
p4881
I6340
sVscattered
p4882
I3022
sVwasted
p4883
I6341
sVrelation
p4884
I6342
sVHill
p4885
I914
sVcarefully
p4886
I3023
sV<eos>my
p4887
I1050
sVfine
p4888
I518
sVfind
p4889
I313
sVPoor
p4890
I1051
sVdepended
p4891
I1534
sVnervous
p4892
I1535
sVruin
p4893
I6343
sVunhappy
p4894
I864
sVpermission
p4895
I6344
sVexpress
p4896
I1109
sVDublin
p4897
I6345
sVcourage
p4898
I2518
sVbreast
p4899
I6346
sVresolve
p4900
I1398
sV;'--
p4901
I6347
sVtestifying
p4902
I6348
sVremove
p4903
I3193
sVcommon
p4904
I590
sV<eos>papa
p4905
I6350
sVLarkins
p4906
I1399
sVWithin
p4907
I7231
sVaspect
p4908
I6351
sVWright
p4909
I3024
sVindividual
p4910
I6352
sVmedley
p4911
I6353
sVtender
p4912
I1110
sVchangeable
p4913
I6354
sVexcusable
p4914
I3964
sVmaterially
p4915
I2519
sVfeared
p4916
I1285
sVdesires
p4917
I4267
sVexpert
p4918
I3965
sVvisiting
p4919
I1723
sVsuperseded
p4920
I3966
sVplease
p4921
I591
sVsmallest
p4922
I915
sVweekly
p4923
I6355
sVKing
p4924
I6356
sVvindicated
p4925
I6357
sVCandles
p4926
I6358
sVoppress
p4927
I6436
sV<eos>Fairfax
p4928
I6359
sVinimitable
p4929
I6360
sVcaprices
p4930
I6361
sVfolding
p4931
I6362
sVreverse
p4932
I2520
sVcarelessness
p4933
I6363
sV<eos>Most
p4934
I3967
sV_gentleman_
p4935
I6364
sVGenlis
p4936
I6365
sVchuses
p4937
I2521
sVYes
p4938
I295
sV<eos>Elton
p4939
I749
sVcakes
p4940
I6366
sVhumoured
p4941
I2522
sVdanced
p4942
I1536
sVpoint
p4943
I419
sVsimple
p4944
I947
sVdances
p4945
I2141
sVdancer
p4946
I3968
sVsimply
p4947
I6367
sVasserted
p4948
I3969
sVthroughout
p4949
I3025
sVpatiently
p4950
I6368
sVcheerfuller
p4951
I6369
sVraise
p4952
I1400
sVcreate
p4953
I3970
sVsecret
p4954
I865
sVmeeting
p4955
I567
sV_understand_
p4956
I7282
sVBalls
p4957
I6370
sVgay
p4958
I3026
sVassorted
p4959
I6371
sVchatted
p4960
I6372
sVunderstand
p4961
I330
sVresisted
p4962
I3971
sVchatter
p4963
I6373
sVunnecessarily
p4964
I3972
sVpolitician
p4965
I6374
sVEltons
p4966
I800
sVtolerate
p4967
I3973
sV<eos>well
p4968
I6375
sVindulging
p4969
I2524
sVdebased
p4970
I6376
sVencountered
p4971
I5812
sVitself
p4972
I1190
sV<eos>He
p4973
I93
sVEaster
p4974
I3974
sVaches
p4975
I6378
sV<eos>Yet
p4976
I3954
sVengrossed
p4977
I6380
sVbutcher
p4978
I3975
sVdiscourse
p4979
I3976
sVcopying
p4980
I6381
sVAstonished
p4981
I6382
sVengrosses
p4982
I4374
sV<eos>Before
p4983
I2142
sVdevelopment
p4984
I3978
sVyesterday
p4985
I621
sVsolicited
p4986
I6383
sVhusbands
p4987
I2525
sVmoment
p4988
I212
sVpurpose
p4989
I827
sVChristian
p4990
I3979
sVtimid
p4991
I6384
sVgestures
p4992
I6385
sVmotionless
p4993
I6386
sVspent
p4994
I916
sVcoachmen
p4995
I6387
sVmorrow
p4996
I622
sVAunt
p4997
I6388
sVmeat
p4998
I6389
sVspend
p4999
I917
sVeffecting
p5000
I7233
sVshape
p5001
I2143
sVopenly
p5002
I2144
sVelegance
p5003
I1111
sVirritable
p5004
I6390
sValternative
p5005
I6391
sVinjuries
p5006
I6392
sVletting
p5007
I3027
sVcut
p5008
I1112
sVextenuations
p5009
I6393
sV<eos>You
p5010
I158
sVmarrying
p5011
I717
sVexcites
p5012
I6394
sVsource
p5013
I2145
sVdeliberately
p5014
I3981
sVreproof
p5015
I3028
sVexcited
p5016
I1904
sVwomanly
p5017
I6395
sVDid
p5018
I1191
sVbid
p5019
I2526
sVmatters
p5020
I1977
sV<eos>Sometimes
p5021
I6397
sVbit
p5022
I3029
sVknock
p5023
I6398
sV<eos>Keep
p5024
I6399
sVfollows
p5025
I6400
sVhyperbolical
p5026
I6401
sVWhatever
p5027
I3982
sV<eos>Cannot
p5028
I6402
sVfoolish
p5029
I1401
sVoften
p5030
I263
sVabsolutely
p5031
I603
sVobliged
p5032
I337
sVmagnificent
p5033
I3983
sVback
p5034
I345
sVcollectedly
p5035
I6403
sVah
p5036
I6577
sVWhom
p5037
I3984
sVstrongest
p5038
I3030
sVinsincere
p5039
I3985
sV<eos>English
p5040
I6404
sVhazarded
p5041
I6405
sVourselves
p5042
I1113
sVpronounced
p5043
I3031
sVacquaintance
p5044
I420
sVpet
p5045
I6406
sVdecision
p5046
I1905
sVpew
p5047
I3986
sVpen
p5048
I6407
sVconnecting
p5049
I6408
sVNothing
p5050
I2527
sVresolutely
p5051
I2146
sVlaughing
p5052
I1277
sVBox
p5053
I948
sVpatient
p5054
I6409
sVremembered
p5055
I2528
sVpeculiarly
p5056
I1537
sVcontinuing
p5057
I3032
sVfed
p5058
I6410
sV<eos>Receive
p5059
I5685
sVcanvassing
p5060
I6412
sVconsequently
p5061
I2529
sV<eos>you
p5062
I1114
sVcompletest
p5063
I6413
sVframed
p5064
I3987
sVIncrease
p5065
I6414
sVremembrance
p5066
I1906
sVlesson
p5067
I3988
sVerrand
p5068
I1907
sVgoodhumoured
p5069
I6415
sVCromer
p5070
I3033
sVinexcusable
p5071
I6416
sVforward
p5072
I582
sVcontentment
p5073
I6417
sVCome
p5074
I1908
sVerrant
p5075
I6418
sVinvite
p5076
I1192
sVhoped
p5077
I500
sVboys
p5078
I1538
sVhopes
p5079
I772
sVchancing
p5080
I6419
sVtreats
p5081
I6420
sVdirected
p5082
I1909
sVrejection
p5083
I6421
sVoutree
p5084
I6422
sVacquirements
p5085
I3989
sVunreserve
p5086
I2147
sVsort
p5087
I205
sVconstant
p5088
I1910
sVcurs
p5089
I6423
sVexpedition
p5090
I6424
sVPerhaps
p5091
I1539
sVscarlet
p5092
I6425
sVconsulted
p5093
I3034
sVcure
p5094
I1286
sVprevail
p5095
I2530
sVdenying
p5096
I2148
sVexcused
p5097
I3990
sVMay
p5098
I2531
sVadoring
p5099
I6426
sVcomposing
p5100
I4683
sVexcuses
p5101
I1540
sVcalmness
p5102
I2149
sVconfine
p5103
I6428
sVExtremely
p5104
I6429
sVaccidental
p5105
I3035
sVfavourite
p5106
I866
sVpapa
p5107
I669
sVluxurious
p5108
I3036
sVrestoration
p5109
I6430
sVlent
p5110
I6431
sVdesert
p5111
I6432
sVlikeliest
p5112
I6433
sV_sacrifice_
p5113
I6434
sVspeculations
p5114
I6435
sVbriskly
p5115
I3611
sVimplied
p5116
I3037
sVpresenting
p5117
I6437
sVamuses
p5118
I3991
sVconjugal
p5119
I3992
sVrenting
p5120
I6438
sVMen
p5121
I6439
sV<eos>Under
p5122
I6440
sVcompose
p5123
I2150
sVgraver
p5124
I3993
sVBusiness
p5125
I6441
sVliterary
p5126
I6442
sVdiffering
p5127
I5997
sVfatal
p5128
I4456
sVnervousness
p5129
I6443
sVCautious
p5130
I6444
sVpresently
p5131
I918
sVdessert
p5132
I3995
sVimplicitly
p5133
I6445
sV<eos>Till
p5134
I2532
sVputting
p5135
I1724
sVaccuse
p5136
I6446
sVarrange
p5137
I3038
sVgipsy
p5138
I3360
sVunderstandings
p5139
I6447
sVrespectful
p5140
I3996
sVshock
p5141
I1912
sVlapse
p5142
I5707
sV<eos>oh
p5143
I3997
sV<eos>of
p5144
I6449
sVLong
p5145
I6450
sV<eos>Going
p5146
I6451
sVuncomfortable
p5147
I2151
sVearth
p5148
I2533
sVinebriety
p5149
I6452
sV<eos>Altogether
p5150
I6453
sVdepression
p5151
I6454
sV<eos>or
p5152
I3039
sVdoctrines
p5153
I6455
sVreconciliation
p5154
I3040
sVAmiable
p5155
I6456
sVtransplanted
p5156
I6457
sVgiving
p5157
I421
sVworshipping
p5158
I6458
sVassisted
p5159
I2534
sVrelented
p5160
I6459
sVfat
p5161
I6460
sVinconveniences
p5162
I6461
sVWallis
p5163
I3041
sVpleading
p5164
I3998
sVBirmingham
p5165
I6462
sVexercise
p5166
I1053
sVmortifications
p5167
I6463
sVbody
p5168
I143
sV<eos>Actually
p5169
I6464
sVexchange
p5170
I3999
sVsins
p5171
I3042
sVobjects
p5172
I1725
sVMarriage
p5173
I6465
sVsink
p5174
I1402
sVothers
p5175
I396
sVdissuade
p5176
I4000
sVsing
p5177
I3043
sVsafer
p5178
I2152
sV<eos>succeeded
p5179
I6466
sVextreme
p5180
I1541
sVremark
p5181
I3044
sVtalent
p5182
I1542
sVconceit
p5183
I1914
sVindelicacy
p5184
I6467
sVcontradiction
p5185
I3045
sV<eos>Much
p5186
I6468
sVprincipally
p5187
I2535
sVcomposed
p5188
I1915
sVnamed
p5189
I1543
sV<eos>Thank
p5190
I4001
sVconjecturing
p5191
I6469
sVprivate
p5192
I1193
sVextravagance
p5193
I6470
sVprivately
p5194
I4886
sVresolutions
p5195
I6471
sVlime
p5196
I4002
sVflatterers
p5197
I6472
sVcalculation
p5198
I6473
sVforestalling
p5199
I6474
sVbutler
p5200
I6475
sVthemselves
p5201
I485
sVdisgustingly
p5202
I6476
sV<eos>Find
p5203
I6477
sVassailed
p5204
I6478
sV<eos>Delighted
p5205
I6479
sVtrain
p5206
I3047
sVashamed
p5207
I670
sVprocuring
p5208
I2318
sVduped
p5209
I6480
sVhints
p5210
I2154
sVaccount
p5211
I368
sVinclinations
p5212
I4003
sVPerrys
p5213
I4004
sVmidsummer
p5214
I6481
sVpraise
p5215
I697
sVclosing
p5216
I4005
sVfetch
p5217
I2155
sV<eos>Think
p5218
I4006
sVreserved
p5219
I1726
sVfeebleness
p5220
I6482
sVproportions
p5221
I6483
sVinfantry
p5222
I6484
sVwaltz
p5223
I6485
sV_He_
p5224
I6486
sVspruce
p5225
I4007
sVnative
p5226
I2536
sVlamb
p5227
I6487
sVvaried
p5228
I4008
sVawkwardness
p5229
I2760
sVdinners
p5230
I4009
sVholds
p5231
I2537
sVpleasing
p5232
I757
sVlamp
p5233
I6489
sVattachment
p5234
I452
sVbashfulness
p5235
I6490
sVmeditated
p5236
I6491
sVstock
p5237
I4010
sVBoarding
p5238
I6492
sVrelapsing
p5239
I6493
sVcollection
p5240
I3048
sV_shall_
p5241
I3660
sVcorals
p5242
I6216
sVpreferred
p5243
I1403
sVyielded
p5244
I4011
sVpleasantness
p5245
I6495
sVphysic
p5246
I4012
sVtrifling
p5247
I1404
sVseparations
p5248
I4998
sVcorrespond
p5249
I6496
sVtrembling
p5250
I2157
sVlinen
p5251
I4013
sVchief
p5252
I3440
sVlined
p5253
I6497
sVfurnish
p5254
I6498
sVforerunner
p5255
I7158
sV<eos>Well
p5256
I950
sValacrity
p5257
I3049
sVflattering
p5258
I3050
sVrevived
p5259
I3051
sV<eos>Waiving
p5260
I6499
sVdecorum
p5261
I6500
sVwinning
p5262
I6501
sVresorting
p5263
I6502
sVheroism
p5264
I6503
sVwilling
p5265
I1405
sVimage
p5266
I6504
sV<eos>VOLUME
p5267
I4015
sVgreater
p5268
I740
sVpangs
p5269
I6505
sVlandau
p5270
I2158
sVmention
p5271
I867
sVcutting
p5272
I2159
sVkindness
p5273
I486
sV<eos>after
p5274
I5052
sVstrive
p5275
I6506
sVpreclude
p5276
I6507
sVfreshness
p5277
I4017
sVFrom
p5278
I6508
sVDearer
p5279
I6509
sVpantry
p5280
I6510
sV<eos>Pain
p5281
I6511
sVaccordant
p5282
I6151
sVhedges
p5283
I4018
sVdefend
p5284
I6512
sVwholly
p5285
I1545
sVmessenger
p5286
I4019
sVfondly
p5287
I3052
sVdeceptions
p5288
I5106
sVsolicitously
p5289
I6513
sVapproached
p5290
I2539
sVpastures
p5291
I6220
sVfourteen
p5292
I6514
sVupbraid
p5293
I6515
sVlikelihood
p5294
I4020
sVacre
p5295
I6516
sVcured
p5296
I4021
sVdeprived
p5297
I6517
sVhinting
p5298
I6518
sVThough
p5299
I6519
sVallied
p5300
I6520
sVretain
p5301
I6521
sVsorrowful
p5302
I4023
sVfinest
p5303
I4024
sVsack
p5304
I6522
sVembarrassed
p5305
I6523
sVerroneous
p5306
I6524
sVreached
p5307
I1115
sVowning
p5308
I6525
sVancient
p5309
I6526
sVsadly
p5310
I3053
sVvulgar
p5311
I2160
sVintermediate
p5312
I6527
sVacquiescence
p5313
I3054
sV<eos>Whenever
p5314
I2540
sVcompleted
p5315
I2804
sVnobody
p5316
I388
sV<eos>Accordingly
p5317
I6528
sVperforce
p5318
I6529
sVmantelpiece
p5319
I4025
sVAbsurd
p5320
I6530
sVvouchsafed
p5321
I6531
sVloved
p5322
I773
sVlabourers
p5323
I6532
sVboyish
p5324
I6533
sVloves
p5325
I1727
sVlover
p5326
I1916
sVvisited
p5327
I2541
sVCoxes
p5328
I2542
sVlabouring
p5329
I6534
sVtidy
p5330
I6535
sVcomfortable
p5331
I592
sVcomfortably
p5332
I1195
sVpitiable
p5333
I6536
sVunlikely
p5334
I2543
sVhave
p5335
I23
sVdictate
p5336
I6537
sVthroat
p5337
I1196
sVapparently
p5338
I3055
sVventuring
p5339
I3056
sVgravity
p5340
I4026
sVmix
p5341
I3057
sVconcerns
p5342
I1917
sVprovoked
p5343
I3058
sVchaise
p5344
I2544
sVmis
p5345
I4027
sVunless
p5346
I1546
sVdisappointments
p5347
I4028
sVCobham
p5348
I5262
sVeight
p5349
I2545
sVcleverest
p5350
I6539
sV_purport_
p5351
I6540
sVgather
p5352
I6541
sVrequest
p5353
I4029
sVoccasion
p5354
I718
sVSaturday
p5355
I2161
sVcontemptuous
p5356
I6542
sV<eos>Goldsmith
p5357
I6543
sVimproprieties
p5358
I6544
sVkite
p5359
I5290
sVabsorbing
p5360
I6546
sVdemurred
p5361
I6547
sVportfolio
p5362
I6548
sVpaternal
p5363
I6549
sVpleasantest
p5364
I3060
sVknowledge
p5365
I828
sVprolong
p5366
I6550
sVYork
p5367
I6551
sVfatiguing
p5368
I6552
sVinferior
p5369
I991
sVregularly
p5370
I3061
sVbeat
p5371
I4030
sVbeau
p5372
I6553
sVbear
p5373
I422
sVaccrue
p5374
I6554
sVbeam
p5375
I6555
sVperfection
p5376
I1406
sVcalling
p5377
I829
sV<eos>Only
p5378
I1728
sVAusten
p5379
I6556
sVexcesses
p5380
I5364
sV<eos>are
p5381
I3594
sVmadam
p5382
I1407
sVomission
p5383
I6558
sVfarthest
p5384
I4031
sVturkeys
p5385
I6559
sVpuddle
p5386
I6560
sVKnightley
p5387
I85
sVenhanced
p5388
I6561
sVrefrained
p5389
I6562
sVindisposition
p5390
I6228
sV<eos>repeated
p5391
I6563
sV<eos>Chuse
p5392
I6564
sV<eos>Look
p5393
I2546
sVclearing
p5394
I4032
sVBird
p5395
I7312
sVdifficulties
p5396
I993
sVprogress
p5397
I1729
sVJuly
p5398
I4034
sVstoutly
p5399
I5326
sVsorrow
p5400
I3062
sVdeliver
p5401
I6566
sVS
p5402
I4035
sVEnscombe
p5403
I593
sVexclaim
p5404
I2162
sVinstant
p5405
I2048
sVasunder
p5406
I4037
sVjoke
p5407
I3063
sVtaking
p5408
I774
sVequal
p5409
I369
sVattributed
p5410
I6567
sVassure
p5411
I375
sV_them_
p5412
I2547
sVtransplantation
p5413
I6568
sVpassing
p5414
I994
sVglorious
p5415
I6569
sVotherwise
p5416
I802
sVcomment
p5417
I6570
sVvent
p5418
I6571
sVgallantries
p5419
I6572
sVcommend
p5420
I6573
sVlaugh
p5421
I951
sVfright
p5422
I6574
sVcomposedly
p5423
I4038
sVgaze
p5424
I6575
sVdevoting
p5425
I3635
sV_recollecting_
p5426
I5455
sVcurtain
p5427
I6578
sVcopied
p5428
I3059
sVarises
p5429
I6580
sVperplexed
p5430
I6581
sVreasonings
p5431
I4039
sVassert
p5432
I5467
sVfinished
p5433
I1408
sVangles
p5434
I6583
sVfellow
p5435
I1730
sVarisen
p5436
I4040
sVdivisions
p5437
I3644
sVholiday
p5438
I6584
sVwelcoming
p5439
I6585
sVsurvey
p5440
I4944
sV<eos>Might
p5441
I6586
sVplain
p5442
I803
sVappearance
p5443
I646
sV<eos>CHAPTER
p5444
I402
sVGeneral
p5445
I6587
sVpromoted
p5446
I3065
sVadvisable
p5447
I3651
sVinherits
p5448
I6588
sValmost
p5449
I264
sVdelusion
p5450
I3066
sVrespected
p5451
I4041
sV<eos>Part
p5452
I4042
sVarrangements
p5453
I6589
sVclaimed
p5454
I4043
sVpartner
p5455
I1547
sV,--"
p5456
I4036
sV)
p5457
I496
sVbrightened
p5458
I6591
sVtumbler
p5459
I6592
sVHandsome
p5460
I6593
sVinjured
p5461
I2549
sVmaterial
p5462
I1216
sVselfish
p5463
I2163
sVGrandpapa
p5464
I6594
sVII
p5465
I4045
sVsisters
p5466
I1116
sVjudgment
p5467
I698
sV<eos>Stokes
p5468
I6595
sVthought
p5469
I124
sVexceedingly
p5470
I1198
sVsets
p5471
I6596
sVcomparisons
p5472
I6597
sVraving
p5473
I6598
sVusual
p5474
I423
sVstores
p5475
I4046
sVdomestic
p5476
I1731
sVsurpass
p5477
I6599
sVseats
p5478
I6600
sVprotecting
p5479
I6601
sVdissuaded
p5480
I6602
sVFriday
p5481
I4047
sVrecommending
p5482
I2164
sVbench
p5483
I6603
sVadd
p5484
I1548
sVraved
p5485
I6604
sVought
p5486
I246
sVresolved
p5487
I671
sVarticles
p5488
I6605
sVpunctual
p5489
I6606
sVColes
p5490
I1199
sVOffices
p5491
I6607
sV<eos>However
p5492
I1549
sVincomprehensible
p5493
I6608
sVlike
p5494
I142
sVinviting
p5495
I4048
sVsofa
p5496
I2551
sVadmitted
p5497
I1117
sV----------,
p5498
I6609
sVworks
p5499
I6610
sVsoft
p5500
I1918
sVdecease
p5501
I4049
sV<eos>always
p5502
I6611
sVauthority
p5503
I2165
sVhair
p5504
I1287
sV<eos>Highbury
p5505
I4050
sVrecommendation
p5506
I1919
sVproper
p5507
I519
sVhappens
p5508
I6612
sVdiscretion
p5509
I3067
sVassuming
p5510
I2552
sVscrewed
p5511
I6613
sVovercharged
p5512
I6614
sVprose
p5513
I3068
sVHeaven
p5514
I3069
sVWiltshire
p5515
I6615
sVslight
p5516
I952
sVhost
p5517
I4051
sVworthy
p5518
I1009
sVvivacity
p5519
I6617
sVchristened
p5520
I5700
sVseriousness
p5521
I6411
sVabout
p5522
I125
sVactual
p5523
I4052
sV:--
p5524
I623
sVDecember
p5525
I2994
sVcertainty
p5526
I1409
sVintroduces
p5527
I6621
sVserviceable
p5528
I4053
sVcoachman
p5529
I2166
sVblessings
p5530
I2553
sVintroduced
p5531
I1550
sVrendered
p5532
I1732
sV!'
p5533
I1920
sV!)
p5534
I6622
sV<eos>Indeed
p5535
I1921
sVguard
p5536
I2554
sVesteem
p5537
I3070
sV<eos>Anxious
p5538
I4594
sV<eos>Happily
p5539
I6623
sV_boiled_
p5540
I5729
sV!--`
p5541
I5542
sVavowed
p5542
I6626
sVstimulative
p5543
I6627
sV<eos>Sir
p5544
I6628
sVNovember
p5545
I2555
sV_courtship_
p5546
I6629
sVbuy
p5547
I6630
sVamity
p5548
I4054
sVbut
p5549
I28
sVrepeated
p5550
I1200
sVplague
p5551
I6631
sVconsternation
p5552
I6632
sVpartially
p5553
I4055
sVwise
p5554
I1551
sVglory
p5555
I4056
sVdangerous
p5556
I1734
sVminutes
p5557
I424
sVpenetrating
p5558
I6633
sVreplying
p5559
I4057
sVwhisper
p5560
I2167
sV<eos>Nothing
p5561
I1055
sVperiods
p5562
I6634
sVrelates
p5563
I4058
sVmysteriously
p5564
I6635
sVdressed
p5565
I2556
sVclaiming
p5566
I6636
sVmimic
p5567
I4393
sVdetain
p5568
I6637
sVnnight
p5569
I6638
sVdraught
p5570
I2557
sVvariation
p5571
I6639
sVApril
p5572
I3072
sVaugmentation
p5573
I6640
sVstirred
p5574
I6641
sVprevalent
p5575
I6642
sVstarting
p5576
I6643
sVbaker
p5577
I6644
sVentreat
p5578
I1288
sVpupil
p5579
I6645
sVpertinacity
p5580
I6646
sVcheerfulness
p5581
I1922
sV8th
p5582
I6647
sVlimited
p5583
I3073
sVsleek
p5584
I6648
sVsleep
p5585
I6649
sVscouted
p5586
I6650
sVhating
p5587
I4059
sVgarters
p5588
I6651
sVappetite
p5589
I4060
sVhate
p5590
I4061
sVassembled
p5591
I4062
sVpoorly
p5592
I6652
sVfeeding
p5593
I6653
sVintreat
p5594
I6654
sVunder
p5595
I352
sVpride
p5596
I995
sVregrets
p5597
I2559
sVcarried
p5598
I2653
sVmerchant
p5599
I6655
sVconjecture
p5600
I3074
sVrisk
p5601
I2560
sV<eos>The
p5602
I111
sVdispense
p5603
I6656
sVrise
p5604
I2561
sVevery
p5605
I81
sVgratification
p5606
I6657
sVsoftened
p5607
I2168
sVHenry
p5608
I868
sVencounter
p5609
I3075
sVschool
p5610
I1552
sVinward
p5611
I7116
sVconceive
p5612
I3076
sVadmissible
p5613
I4063
sVGo
p5614
I6658
sVdelightfully
p5615
I1735
sVWindsor
p5616
I2169
sVenjoy
p5617
I1553
sVparted
p5618
I1410
sVinfancy
p5619
I6659
sVreprehension
p5620
I6660
sVconsistent
p5621
I6661
sVweddings
p5622
I6662
sVdirect
p5623
I1411
sVsurrounding
p5624
I6663
sVpersuade
p5625
I1261
sVestimated
p5626
I6664
sVexpressive
p5627
I6665
sVblue
p5628
I3078
sVconduce
p5629
I4064
sVsolemn
p5630
I2170
sVliberty
p5631
I1872
sVchildren
p5632
I376
sVinsinuate
p5633
I6666
sVmischievous
p5634
I6667
sV<eos>Short
p5635
I4065
sVconduct
p5636
I719
sVstared
p5637
I5074
sVhundreds
p5638
I6668
sVhumility
p5639
I6669
sVpath
p5640
I2562
sVshortness
p5641
I6670
sVproperty
p5642
I2353
sV_misery_
p5643
I6671
sVleaves
p5644
I6672
sVchanged
p5645
I2563
sVabolition
p5646
I6673
sVsettled
p5647
I537
sVpunishment
p5648
I2564
sVventured
p5649
I2172
sVverdure
p5650
I6675
sVstray
p5651
I4066
sVvisibly
p5652
I4067
sVfeelings
p5653
I251
sVpatience
p5654
I1289
sVwould
p5655
I37
sVJune
p5656
I2173
sVlessening
p5657
I6676
sVincommoded
p5658
I6677
sVtradesman
p5659
I6678
sVbreathe
p5660
I6679
sVdressing
p5661
I6680
sV<eos>Gilbert
p5662
I3980
sVgrief
p5663
I2565
sVexcellent
p5664
I672
sVmust
p5665
I57
sVme
p5666
I49
sVjoin
p5667
I830
sVCrown
p5668
I776
sVentertained
p5669
I4068
sVdeficiencies
p5670
I6682
sVdetermining
p5671
I6683
sVmy
p5672
I47
sVshook
p5673
I1554
sVestate
p5674
I3079
sVingenuity
p5675
I4069
sVpreserving
p5676
I6684
sVoverheard
p5677
I6685
sVLord
p5678
I6087
sVkeep
p5679
I640
sVattract
p5680
I6687
sV<eos>so
p5681
I2566
sVoverpowered
p5682
I2718
sVceremony
p5683
I1923
sVsneers
p5684
I6688
sVend
p5685
I520
sVsitting
p5686
I499
sVgate
p5687
I4070
sVIII
p5688
I2567
sVbadly
p5689
I6689
sVdescription
p5690
I1924
sVdelicacy
p5691
I996
sV1816
p5692
I6293
sVdemanding
p5693
I6691
sVjumping
p5694
I6692
sVcasement
p5695
I6128
sVamid
p5696
I6694
sVacknowledged
p5697
I1290
sVenter
p5698
I1555
sValoud
p5699
I1892
sVoysters
p5700
I6695
sVunsteady
p5701
I6696
sV_introduction_
p5702
I6697
sVover
p5703
I181
sVsickly
p5704
I2568
sV<eos>Papa
p5705
I3080
sVtalkative
p5706
I3081
sVglances
p5707
I6698
sVhypocrisy
p5708
I6699
sVexpectations
p5709
I3082
sVHere
p5710
I1201
sVcomprehend
p5711
I988
sVdestroyed
p5712
I4072
sVindistinctness
p5713
I6700
sVglanced
p5714
I4073
sV_had_
p5715
I4074
sVprevented
p5716
I2174
sVconfuse
p5717
I5747
sVpreconceived
p5718
I6792
sVillegitimacy
p5719
I4075
sVgloom
p5720
I4076
sVFour
p5721
I6701
sVcapricious
p5722
I6702
sVeach
p5723
I553
sVlasting
p5724
I2176
sVElton
p5725
I87
sVjoined
p5726
I953
sVpractising
p5727
I4077
sV_who_
p5728
I6703
sVfuss
p5729
I6704
sVovercame
p5730
I6705
sVdriving
p5731
I2569
sVsang
p5732
I6706
sVsighing
p5733
I2177
sVWilliam
p5734
I997
sV<eos>Understanding
p5735
I6707
sVlaid
p5736
I1412
sVfoolishly
p5737
I3260
sVlain
p5738
I6708
sVgot
p5739
I554
sVnewly
p5740
I6709
sVindependence
p5741
I1291
sVperception
p5742
I6710
sVassociate
p5743
I3083
sVeternal
p5744
I4078
sVfree
p5745
I2570
sVformation
p5746
I6711
sVrain
p5747
I896
sVW
p5748
I2571
sVwanted
p5749
I292
sVdays
p5750
I457
sV);--
p5751
I6712
sV<eos>perfectly
p5752
I6713
sVkey
p5753
I2572
sValready
p5754
I475
sVcharacters
p5755
I4079
sVofficious
p5756
I6714
sV<eos>Captain
p5757
I6294
sVencouraging
p5758
I1925
sVrank
p5759
I1736
sVhearing
p5760
I647
sVawoke
p5761
I6716
sVdiscomposed
p5762
I4080
sVsober
p5763
I3084
sVscissors
p5764
I6717
sVJULY
p5765
I6718
sVcheerless
p5766
I6719
sVtop
p5767
I4081
sVkinder
p5768
I3085
sVtoo
p5769
I115
sVinconvenient
p5770
I4082
sV<eos>Maple
p5771
I4083
sV_My_
p5772
I4084
sVcurtains
p5773
I6720
sVceiling
p5774
I6721
sVilliterate
p5775
I6722
sVserve
p5776
I3086
sVtook
p5777
I469
sVkindest
p5778
I6723
sVwestern
p5779
I6724
sVhealed
p5780
I6725
sVclassed
p5781
I6726
sVunsentimental
p5782
I6727
sVfinal
p5783
I6728
sVflame
p5784
I6729
sVmirth
p5785
I6730
sVSerle
p5786
I6731
sVcirculate
p5787
I6732
sVhonourable
p5788
I1620
sVscramble
p5789
I6883
sVdonkey
p5790
I4087
sVfashion
p5791
I3087
sVran
p5792
I2178
sVtalking
p5793
I437
sVadvising
p5794
I4088
sVfurther
p5795
I6733
sVunaffected
p5796
I3088
sV<eos>Yes
p5797
I1556
sV<eos>With
p5798
I720
sVSelina
p5799
I2573
sVthoroughly
p5800
I998
sV-
p5801
I54
sVsnow
p5802
I1057
sVthorough
p5803
I1413
sVlaughed
p5804
I1058
sVrides
p5805
I6734
sVincapable
p5806
I4104
sVthough
p5807
I156
sVReports
p5808
I6736
sVplenty
p5809
I2574
sVcommanding
p5810
I6737
sVphilosophic
p5811
I4089
sVparting
p5812
I1202
sVglow
p5813
I2575
sVconstancy
p5814
I4090
sV<eos>No
p5815
I487
sVprevails
p5816
I6738
sVflow
p5817
I2179
sVspencer
p5818
I6797
sVorderly
p5819
I6740
sVreputation
p5820
I6741
sVWant
p5821
I6742
sVentertaining
p5822
I3089
sVinspire
p5823
I6743
sVqueen
p5824
I6744
sVaspired
p5825
I4091
sVadoration
p5826
I6745
sVspite
p5827
I750
sVsituations
p5828
I1927
sVdelays
p5829
I3090
sVstanza
p5830
I6746
sVrefreshment
p5831
I6747
sVBad
p5832
I3941
sV<eos>Adopt
p5833
I6748
sVdisgust
p5834
I3091
sVannounce
p5835
I1737
sVincommoding
p5836
I6749
sVborrowed
p5837
I4092
sV<eos>Resentment
p5838
I6750
sVmixture
p5839
I1738
sVwatch
p5840
I1739
sVWeymouth
p5841
I999
sVwedding
p5842
I1059
sVreport
p5843
I1740
sVconsiderate
p5844
I4093
sVconundrums
p5845
I6751
sVunluckily
p5846
I6752
sVcountries
p5847
I6753
sVanxiously
p5848
I1928
sVtwice
p5849
I2180
sVfarther
p5850
I501
sV_more_
p5851
I6754
sVpenance
p5852
I1929
sVpresuming
p5853
I6755
sVswept
p5854
I4094
sVhabit
p5855
I1203
sVresist
p5856
I3092
sVbed
p5857
I1292
sVdisturbing
p5858
I6756
sVgentility
p5859
I3093
sVcapacity
p5860
I6757
sVtemptation
p5861
I1741
sVcontinually
p5862
I2181
sVgrandmother
p5863
I1742
sVmud
p5864
I6758
sVfinger
p5865
I3094
sV<eos>These
p5866
I1414
sVmum
p5867
I6257
sVapproach
p5868
I1743
sVdiscovery
p5869
I1557
sVdisagreeableness
p5870
I6760
sVdoated
p5871
I4095
sVpurity
p5872
I6761
sVconfusion
p5873
I1204
sVweak
p5874
I2182
sVhowever
p5875
I206
sVwear
p5876
I4096
sV<eos>Campbell
p5877
I4097
sVnews
p5878
I673
sVimprove
p5879
I4098
sV<eos>only
p5880
I6762
sVgoodnatured
p5881
I6763
sVirregular
p5882
I6764
sVfault
p5883
I869
sV<eos>Soon
p5884
I3095
sVplayers
p5885
I6765
sVtattle
p5886
I6766
sVgames
p5887
I6767
sVfaces
p5888
I4099
sVexpense
p5889
I1744
sVCowper
p5890
I6768
sVvexed
p5891
I2576
sVconfide
p5892
I6769
sVsteaks
p5893
I4523
sVundoubting
p5894
I6770
sVcomprehension
p5895
I3096
sVtrust
p5896
I2183
sVlateness
p5897
I6771
sV<eos>Henceforward
p5898
I6772
sVzigzags
p5899
I6773
sVbeen
p5900
I40
sVquickly
p5901
I1930
sVconfident
p5902
I3097
sVbeer
p5903
I6774
sVbelongs
p5904
I3549
sVbeet
p5905
I6775
sVschoolroom
p5906
I6776
sVexpected
p5907
I539
sVrefuted
p5908
I6777
sVdrugs
p5909
I6778
sVuncommon
p5910
I3098
sVcatch
p5911
I1119
sVapprehension
p5912
I1931
sVlessen
p5913
I3099
sVhumanity
p5914
I6779
sVstrangest
p5915
I6780
sV!--"
p5916
I6781
sVteachers
p5917
I6782
sV<eos>asked
p5918
I3100
sVstopping
p5919
I2184
sV!--(
p5920
I3101
sV<eos>yes
p5921
I1000
sVdelineated
p5922
I6783
sVdumplings
p5923
I6784
sVbroth
p5924
I6785
sV<eos>Humph
p5925
I6786
sVexpenses
p5926
I6787
sVexterior
p5927
I6788
sVpunctuality
p5928
I6789
sVTell
p5929
I6790
sVcontaining
p5930
I2185
sVsuggest
p5931
I4100
sVwound
p5932
I4101
sV<eos>Fetch
p5933
I6791
sVdrawback
p5934
I2186
sVadvances
p5935
I3441
sVseveral
p5936
I1745
sVgreeted
p5937
I6793
sVBristol
p5938
I2578
sVinsisted
p5939
I6794
sVmentioning
p5940
I3102
sVshortly
p5941
I4102
sVpossessed
p5942
I4103
sVhearty
p5943
I6795
sVimpediment
p5944
I6796
sVgreatest
p5945
I721
sVdetained
p5946
I1926
sVmother
p5947
I318
sValarms
p5948
I4105
sVpossesses
p5949
I6739
sVappease
p5950
I6798
sVdeparted
p5951
I6799
sVproposed
p5952
I1001
sV<eos>Interference
p5953
I6800
sVstrenuously
p5954
I6801
sVOught
p5955
I6802
sVtolerably
p5956
I1120
sVdearer
p5957
I2187
sVpitiful
p5958
I6803
sVtolerable
p5959
I1932
sVgave
p5960
I425
sVsubmissive
p5961
I4106
sVJames
p5962
I919
sVbreaks
p5963
I6804
sVjudge
p5964
I870
sVscruple
p5965
I1746
sVapart
p5966
I4107
sVappearing
p5967
I2579
sVzeal
p5968
I3103
sVcontradict
p5969
I4108
sVgifted
p5970
I6805
sVcelibacy
p5971
I6806
sV<eos>Unwelcome
p5972
I6807
sVindoors
p5973
I6808
sVoffices
p5974
I4109
sVoverrated
p5975
I5401
sVhung
p5976
I4110
sVrefinement
p5977
I6810
sVsuccessfully
p5978
I6811
sVproudly
p5979
I6812
sVMuch
p5980
I2580
sVusher
p5981
I6813
sVquadrille
p5982
I6814
sVdispleasure
p5983
I2188
sVescape
p5984
I1121
sVtremor
p5985
I6815
sVprecautions
p5986
I6816
sVguess
p5987
I889
sVintellect
p5988
I6817
sVrapidity
p5989
I3104
sVembodied
p5990
I6818
sVproceeding
p5991
I4111
sVcompanions
p5992
I1558
sVice
p5993
I6819
sVHa
p5994
I4112
sVsubordination
p5995
I6820
sVespionage
p5996
I6821
sVHe
p5997
I285
sVcorn
p5998
I6822
sVunseasonableness
p5999
I6823
sVidolized
p6000
I6824
sVinvaluable
p6001
I5253
sVpermitted
p6002
I3105
sVhomewards
p6003
I6825
sVchapter
p6004
I6826
sVdinner
p6005
I488
sVensure
p6006
I6827
sVsteadily
p6007
I2189
sVefforts
p6008
I6828
sVStill
p6009
I3106
sVpresence
p6010
I4114
sVcivil
p6011
I1060
sVpuzzle
p6012
I4115
sVobtaining
p6013
I6829
sVbath
p6014
I6830
sVaccommodate
p6015
I4116
sVaccomplishments
p6016
I6831
sVdescriptive
p6017
I6832
sVexisted
p6018
I6833
sVindispensable
p6019
I3107
sVpersonage
p6020
I6834
sVwhy
p6021
I722
sVBreak
p6022
I6835
sV<eos>Ten
p6023
I3108
sVpurposely
p6024
I4117
sVhead
p6025
I502
sVmedium
p6026
I6836
sVattempted
p6027
I1933
sVheal
p6028
I4118
sV26th
p6029
I6837
sVheat
p6030
I1934
sVuncle
p6031
I756
sVsatisfactorily
p6032
I4119
sVheap
p6033
I6838
sVliveliest
p6034
I6839
sVremoved
p6035
I1559
sVnodded
p6036
I6840
sVcounsel
p6037
I3109
sVbids
p6038
I6841
sVgratifications
p6039
I6842
sVsubmitting
p6040
I6843
sVdisperse
p6041
I6844
sVimpropriety
p6042
I4120
sVsuspicions
p6043
I1293
sVcheck
p6044
I3110
sVwillingly
p6045
I4121
sV<eos>evil
p6046
I6845
sVfaithful
p6047
I4122
sVno
p6048
I52
sVBaronne
p6049
I6846
sVwhen
p6050
I101
sVsetting
p6051
I1560
sVpapers
p6052
I3111
sVtie
p6053
I6847
sVCoxe
p6054
I6848
sVpicture
p6055
I920
sVsuppers
p6056
I6849
sVrising
p6057
I2207
sVflushed
p6058
I6851
sVconstrain
p6059
I5774
sVyounger
p6060
I6852
sVlonger
p6061
I426
sVsacks
p6062
I6853
sVvigorously
p6063
I4124
sVClifton
p6064
I6854
sVlonged
p6065
I2581
sVfasten
p6066
I4125
sVintimacy
p6067
I1002
sVbackward
p6068
I6855
sVcoach
p6069
I6856
sVremarkable
p6070
I4126
sVimpression
p6071
I1691
sV_Miss_
p6072
I4127
sVvarying
p6073
I6857
sVobviate
p6074
I4750
sVleads
p6075
I4128
sVremarkably
p6076
I1294
sVdisplaying
p6077
I6859
sVdiscern
p6078
I3112
sVreprehensible
p6079
I5775
sVcontemplating
p6080
I6860
sVpassage
p6081
I1205
sVcharge
p6082
I921
sVpromoting
p6083
I6861
sVdiscovering
p6084
I5909
sVhonoured
p6085
I2582
sVDay
p6086
I4130
sVadvantage
p6087
I778
sVinspiriting
p6088
I6863
sVworkbags
p6089
I6864
sVcook
p6090
I6865
sV<eos>Now
p6091
I751
sV<eos>Not
p6092
I1295
sVcool
p6093
I1935
sVsighed
p6094
I4131
sVlevel
p6095
I4132
sVbrother
p6096
I389
sVencroach
p6097
I6866
sVquick
p6098
I871
sVaccumulation
p6099
I6867
sVpork
p6100
I1296
sVsays
p6101
I648
sVinjunction
p6102
I4133
sVpore
p6103
I6868
sVvouches
p6104
I6869
sVJane
p6105
I113
sVbake
p6106
I6870
sVfear
p6107
I1415
sVsubstitute
p6108
I6871
sVirritated
p6109
I3113
sVdistaste
p6110
I6872
sVconstitution
p6111
I2217
sVcontracted
p6112
I6874
sVdebate
p6113
I7335
sVescorted
p6114
I6875
sVgoes
p6115
I2191
sVreply
p6116
I1061
sVamounting
p6117
I6876
sVdoing
p6118
I453
sVwater
p6119
I1747
sVentertain
p6120
I2583
sVtwentieth
p6121
I6877
sVhoarse
p6122
I6878
sVsupplying
p6123
I3114
sVmale
p6124
I6879
sVthirty
p6125
I3163
sVexpressly
p6126
I6880
sVpearls
p6127
I6881
sVguilty
p6128
I6882
sVproud
p6129
I1611
sVhospitality
p6130
I4135
sVhumour
p6131
I1206
sVconnivance
p6132
I6884
sVshark
p6133
I3606
sV<eos>Circumstances
p6134
I5636
sV<eos>Excellent
p6135
I6885
sVcrisis
p6136
I3115
sVhandled
p6137
I6886
sVsends
p6138
I3116
sVvariously
p6139
I4136
sVmemory
p6140
I1416
sVPartridge
p6141
I3117
sVdismay
p6142
I6887
sVOctober
p6143
I4137
sVteased
p6144
I6888
sVThese
p6145
I4138
sVneglected
p6146
I4139
sV_as_
p6147
I6889
sVattained
p6148
I5781
sVdrown
p6149
I6890
sVdismal
p6150
I6891
sVTime
p6151
I6892
sVcases
p6152
I4140
sVterseness
p6153
I6893
sVthousands
p6154
I2192
sV<eos>Some
p6155
I1214
sVdeservedly
p6156
I6894
sVaffectedly
p6157
I2924
sVreproachful
p6158
I6895
sV<eos>Jane
p6159
I595
sVsmilingly
p6160
I6565
sVinexperience
p6161
I6896
sVstroke
p6162
I6897
sVpalpitations
p6163
I6898
sVdropped
p6164
I6899
sVprovoke
p6165
I6900
sVintelligible
p6166
I1297
sVnaivete
p6167
I3119
sVsecured
p6168
I1417
sVfourth
p6169
I6901
sVspeaks
p6170
I1749
sVsecures
p6171
I6902
sVtippet
p6172
I6903
sVballroom
p6173
I3120
sVimprovidently
p6174
I6904
sV<eos>Wickedness
p6175
I6905
sVinforms
p6176
I6906
sVbirthday
p6177
I6907
sVrepresentations
p6178
I6908
sVeighth
p6179
I4143
sVsucceeded
p6180
I1418
sVamuse
p6181
I1750
sV<eos>Letters
p6182
I6909
sVpropriety
p6183
I1751
sVglancing
p6184
I2585
sVrepresentation
p6185
I4144
sVcurtseys
p6186
I6910
sVlamented
p6187
I4145
sVimagining
p6188
I6911
sVfurnished
p6189
I4146
sVmidnight
p6190
I6912
sVworship
p6191
I6913
sVblocked
p6192
I6914
sVabhorred
p6193
I6915
sVoffers
p6194
I2193
sVfarmer
p6195
I1752
sVrationality
p6196
I6916
sVhappened
p6197
I779
sV<eos>_She_
p6198
I2586
sVlonely
p6199
I6917
sVconversations
p6200
I6918
sVAugusta
p6201
I3217
sVqualified
p6202
I4147
sVterm
p6203
I6920
sVequality
p6204
I3121
sVname
p6205
I412
sVsensibilities
p6206
I6921
sVpossibilities
p6207
I6922
sVnodding
p6208
I2194
sVimportation
p6209
I6923
sVsubjection
p6210
I4148
sVejaculation
p6211
I6924
sVcatching
p6212
I2195
sVbegun
p6213
I1207
sVplans
p6214
I1753
sVexclamation
p6215
I6925
sVputrid
p6216
I6926
sVintercourse
p6217
I1208
sVprofit
p6218
I4149
sVliveliness
p6219
I4150
sVoverflowing
p6220
I6927
sVclover
p6221
I6928
sVattended
p6222
I1561
sV_our_
p6223
I4151
sVaccommodation
p6224
I2197
sVimpose
p6225
I6929
sVcorroborating
p6226
I6930
sVmotion
p6227
I2587
sVturn
p6228
I752
sVplace
p6229
I255
sVenvied
p6230
I6931
sVdeceived
p6231
I1431
sVchildhood
p6232
I4152
sVorigin
p6233
I2588
sV<eos>_What_
p6234
I4367
sVsurviving
p6235
I6932
sVincongruous
p6236
I6933
sVfetches
p6237
I6934
sV_engagement_
p6238
I6935
sVmorrows
p6239
I4153
sV<eos>Arthur
p6240
I7363
sVcheerfully
p6241
I1562
sVdisinterested
p6242
I3123
sVgiven
p6243
I286
sVnecessarily
p6244
I2198
sVAladdin
p6245
I6936
sVpersuasions
p6246
I6937
sVSuch
p6247
I872
sVwhite
p6248
I2199
sVgiver
p6249
I6938
sVgives
p6250
I954
sVseduced
p6251
I4402
sVhue
p6252
I4154
sVtempers
p6253
I6940
sVreverie
p6254
I4155
sVseason
p6255
I2200
sVreleased
p6256
I6941
sVinexpressibly
p6257
I4156
sValas
p6258
I6942
sVunpretty
p6259
I6943
sVcopy
p6260
I6944
sVunfortunately
p6261
I2589
sVrequire
p6262
I1754
sVcards
p6263
I2590
sVoath
p6264
I6945
sVand
p6265
I4
sVtarts
p6266
I6946
sV,'"
p6267
I6947
sVconfessed
p6268
I6948
sVsuspense
p6269
I1937
sVexchanging
p6270
I6949
sVconfesses
p6271
I4157
sVdryness
p6272
I4455
sVprosperity
p6273
I3124
sVundistinguishing
p6274
I7096
sVmourners
p6275
I6950
sVideas
p6276
I1209
sVdining
p6277
I1298
sVanimation
p6278
I2201
sVblunt
p6279
I6951
sV_here_
p6280
I4158
sVurge
p6281
I2591
sVcommonplace
p6282
I4159
sVclearer
p6283
I3125
sVfalls
p6284
I6952
sVvisitors
p6285
I4160
sVcleared
p6286
I4161
sV<eos>Was
p6287
I2440
sV_and_
p6288
I6953
sVWhoever
p6289
I4162
sVconsidered
p6290
I1122
sVadopt
p6291
I3126
sVhungry
p6292
I4163
sVdocile
p6293
I5578
sV<eos>Vanity
p6294
I4164
sVquantity
p6295
I6954
sVslope
p6296
I6955
sV_alone_
p6297
I6956
sVcheap
p6298
I6957
sV<eos>Excepting
p6299
I3680
sV--------.'
p6300
I6958
sVstate
p6301
I397
sVsurmises
p6302
I5795
sVbelieving
p6303
I4165
sVpartake
p6304
I6960
sVwool
p6305
I6961
sVdreaded
p6306
I6962
sVlighted
p6307
I6963
sVbegging
p6308
I6964
sVadmiration
p6309
I1054
sVlighter
p6310
I6965
sVclerks
p6311
I6966
sVhedge
p6312
I6967
sVtreachery
p6313
I4166
sVcontrivances
p6314
I6968
sVimpolite
p6315
I6969
sVfainted
p6316
I6970
sVjokes
p6317
I6971
sVdiscussing
p6318
I6972
sVpicnic
p6319
I6973
sV_dissolved_
p6320
I6974
sVimposing
p6321
I6975
sVColonel
p6322
I491
sVobliging
p6323
I625
sVapologies
p6324
I1938
sVasperity
p6325
I6977
sVbluntness
p6326
I6978
sVprofessed
p6327
I2202
sVencouraged
p6328
I1563
sVfails
p6329
I6979
sVvoluntary
p6330
I4167
sVways
p6331
I1124
sVsubsequent
p6332
I2592
sV<eos>Invite
p6333
I4168
sVarrival
p6334
I1210
sVmultiplied
p6335
I6980
sVrefine
p6336
I7294
sVfearless
p6337
I6981
sVinseparably
p6338
I6982
sVdutiful
p6339
I6983
sVcome
p6340
I162
sVgrieved
p6341
I1939
sVstupidest
p6342
I6984
sVquiet
p6343
I804
sVcontract
p6344
I6985
sVofficer
p6345
I6809
sVsuccessless
p6346
I6986
sVutterance
p6347
I6987
sVduty
p6348
I955
sVunceremoniousness
p6349
I6988
sVafterwards
p6350
I476
sVperiod
p6351
I956
sVpop
p6352
I6989
sVresentment
p6353
I1940
sVsatisfaction
p6354
I805
sV.--`
p6355
I2593
sVBut
p6356
I215
sVdeposited
p6357
I6990
sVtittle
p6358
I6991
sVhardly
p6359
I302
sVdirection
p6360
I1941
sVBateses
p6361
I3127
sVrobbed
p6362
I6992
sVblessing
p6363
I1755
sVostentation
p6364
I4723
sVminister
p6365
I6994
sVcareful
p6366
I2288
sVspirit
p6367
I723
sVcase
p6368
I699
sVmyself
p6369
I243
sV<eos>Poor
p6370
I1300
sV.--"
p6371
I626
sVcast
p6372
I3128
sVslippery
p6373
I6995
sVshops
p6374
I6996
sVOpen
p6375
I6997
sV<eos>'
p6376
I6998
sV<eos>"
p6377
I19
sVpalliate
p6378
I6999
sVcoupled
p6379
I7000
sV<eos>.
p6380
I674
sVcontrive
p6381
I3129
sV<eos>(
p6382
I2594
sVcouplet
p6383
I7001
sVunreserved
p6384
I7002
sVdecisively
p6385
I7003
sV<eos>Aye
p6386
I7004
sVauthor
p6387
I7005
sValphabet
p6388
I7006
sVgranted
p6389
I2595
sVreminded
p6390
I7007
sVconfidant
p6391
I7008
sVinjurious
p6392
I4717
sVshifts
p6393
I4781
sVbows
p6394
I7010
sV<eos>For
p6395
I957
sVagitated
p6396
I1564
sVparlours
p6397
I4170
sVevents
p6398
I3130
sVweek
p6399
I724
sVIX
p6400
I3131
sV<eos>a
p6401
I2596
sVdisadvantages
p6402
I4789
sVrefusal
p6403
I2203
sVIV
p6404
I2729
sVdriven
p6405
I4171
sVpersons
p6406
I1756
sVpetticoat
p6407
I4172
sVdelicate
p6408
I1565
sVunqualified
p6409
I7012
sVchanging
p6410
I3132
sVvowed
p6411
I7013
sVDeceived
p6412
I7014
sVlonging
p6413
I2597
sV<eos>E
p6414
I7015
sVmodes
p6415
I7016
sV<eos>A
p6416
I239
sVIs
p6417
I1301
sVIt
p6418
I235
sV<eos>I
p6419
I44
sVwithout
p6420
I131
sVflakes
p6421
I4173
sVrelief
p6422
I1757
sV<eos>_We_
p6423
I4174
sVacceded
p6424
I6681
sVtermination
p6425
I7018
sVmodel
p6426
I3133
sVreward
p6427
I7019
sV<eos>[
p6428
I4175
sVbodies
p6429
I7020
sVjustify
p6430
I4830
sVconnexions
p6431
I1419
sVguided
p6432
I1942
sVactions
p6433
I7021
sVrisking
p6434
I7022
sVviolent
p6435
I4176
sVcease
p6436
I2598
sVabstained
p6437
I7023
sVpolish
p6438
I7024
sVsatin
p6439
I7025
sVblow
p6440
I3134
sVblot
p6441
I7026
sVgentleness
p6442
I7027
sVhint
p6443
I1003
sVrose
p6444
I1943
sVfavouring
p6445
I3377
sVexcept
p6446
I649
sVrecordable
p6447
I5410
sVlets
p6448
I7028
sVhind
p6449
I7029
sVunfastidious
p6450
I7030
sVkingdom
p6451
I2599
sVlittleness
p6452
I3136
sVconfined
p6453
I2204
sVaccepted
p6454
I1420
sVSomething
p6455
I4177
sV<eos>Disputable
p6456
I7031
sVcaptious
p6457
I4178
sVworldly
p6458
I7373
sVWest
p6459
I7033
sVSince
p6460
I4179
sV<eos>for
p6461
I2205
sVrespect
p6462
I585
sVoftener
p6463
I3137
sVprovided
p6464
I2600
sVslice
p6465
I4180
sVstopt
p6466
I1944
sVlegal
p6467
I7034
sVimputed
p6468
I4181
sVquitting
p6469
I2601
sVfreed
p6470
I7035
sVquit
p6471
I2927
sVinspect
p6472
I7036
sVcommunicate
p6473
I3138
sVWallises
p6474
I7037
sVcalmer
p6475
I4183
sVterrified
p6476
I7038
sVaffording
p6477
I4184
sVPlaying
p6478
I7039
sV_
p6479
I4185
sVon
p6480
I43
sVgaily
p6481
I7041
sVsubdued
p6482
I7042
sVoh
p6483
I2206
sVof
p6484
I5
sVdiscussed
p6485
I7043
sVmutually
p6486
I3139
sVwhence
p6487
I4186
sVstand
p6488
I831
sVscornful
p6489
I4961
sVox
p6490
I7045
sVor
p6491
I60
sVladies
p6492
I569
sVrued
p6493
I7046
sVnods
p6494
I6850
sVcommunication
p6495
I1936
sVcouncillors
p6496
I4427
sVdetermine
p6497
I4187
sVstrictly
p6498
I4188
sVthere
p6499
I77
sVhazards
p6500
I7048
sVdisposed
p6501
I832
sV<eos>"`
p6502
I4189
sVstrict
p6503
I3140
sV<eos>Presently
p6504
I4190
sVunpolished
p6505
I7049
sVenergy
p6506
I3141
sVforbade
p6507
I7050
sV<eos>Knightley
p6508
I753
sVsposo
p6509
I4191
sVregard
p6510
I570
sVamongst
p6511
I4192
sVungallant
p6512
I7377
sVrouse
p6513
I3228
sVfaster
p6514
I4194
sVapplying
p6515
I4195
sV<eos>Bought
p6516
I5016
sVmortals
p6517
I7053
sV<eos>"'
p6518
I5019
sVennui
p6519
I7055
sVstrongly
p6520
I1945
sVtaste
p6521
I583
sV<eos>Absolute
p6522
I7056
sVgoverned
p6523
I7057
sVingeniously
p6524
I7058
sVdeserve
p6525
I833
sVdiscerned
p6526
I3142
sVrubber
p6527
I7059
sVdeviation
p6528
I7060
sVrequested
p6529
I7061
sVbriefly
p6530
I7062
sVHappier
p6531
I7063
sVoneself
p6532
I7064
sVseparate
p6533
I1302
sVfinale
p6534
I7065
sVsouls
p6535
I5477
sVflower
p6536
I7067
sVbounded
p6537
I7068
sVserious
p6538
I675
sVincluded
p6539
I2602
sV<eos>Mrs
p6540
I247
sVunanswerable
p6541
I7069
sVundoubted
p6542
I7070
sVcalls
p6543
I2603
sVwife
p6544
I338
sVcurve
p6545
I7071
sV<eos>Why
p6546
I1566
sV_very_
p6547
I1946
sVlamentations
p6548
I7072
sV<eos>Who
p6549
I2208
sVMaple
p6550
I650
sVall
p6551
I36
sVlace
p6552
I1947
sVwreath
p6553
I7073
sV<eos>Towards
p6554
I7074
sVdish
p6555
I7075
sVfollow
p6556
I1303
sVglimpse
p6557
I2604
sVapartment
p6558
I7076
sVsparkling
p6559
I4196
sVremoval
p6560
I1758
sVbelonging
p6561
I2605
sVwoman
p6562
I194
sVworse
p6563
I725
sVsong
p6564
I2209
sVfar
p6565
I319
sVinduce
p6566
I1759
sVdenoted
p6567
I7077
sVsons
p6568
I7078
sVworst
p6569
I958
sVinstruments
p6570
I7047
sVhems
p6571
I7079
sVengrafted
p6572
I5288
sVlist
p6573
I4197
sVplotting
p6574
I4582
sVundone
p6575
I7081
sVemploying
p6576
I4198
sVten
p6577
I726
sVprofessing
p6578
I7322
sVtea
p6579
I806
sVrate
p6580
I959
sVinvention
p6581
I7082
sVdesign
p6582
I2607
sVwhat
p6583
I78
sVhesitation
p6584
I1567
sVadvantageous
p6585
I7083
sVsun
p6586
I3517
sVbrief
p6587
I3518
sVdisagreeables
p6588
I7085
sVrow
p6589
I7086
sVespalier
p6590
I7087
sVbehaviour
p6591
I676
sVdirections
p6592
I3143
sV<eos>who
p6593
I7088
sVobserving
p6594
I2210
sVJeffereys
p6595
I7089
sVgraciousness
p6596
I4199
sVextraordinary
p6597
I834
sV<eos>replied
p6598
I2211
sVthankfully
p6599
I7090
sV<eos>Our
p6600
I4200
sVsuddenly
p6601
I4201
sVsolitude
p6602
I3144
sVtexts
p6603
I7091
sVfearfully
p6604
I7092
sV_lady_
p6605
I3370
sVenlivened
p6606
I4203
sVTom
p6607
I7093
sVproceed
p6608
I1569
sVirritate
p6609
I4204
sVImmediately
p6610
I7094
sVminor
p6611
I7095
sVhorses
p6612
I677
sVwretched
p6613
I1304
sVknows
p6614
I678
sVcharades
p6615
I3145
sV<eos>_Courtship_
p6616
I6862
sVwretches
p6617
I7097
sVdraughts
p6618
I7098
sVknown
p6619
I361
sVglad
p6620
I427
sVpresumed
p6621
I2608
sVforbearance
p6622
I1760
sVInn
p6623
I7099
sV<eos>To
p6624
I627
sVembarrassing
p6625
I7100
sVsalted
p6626
I4205
sVdivision
p6627
I4206
sVimitation
p6628
I7101
sVarise
p6629
I1948
sVinfluenced
p6630
I7102
sVcourt
p6631
I1761
sVbroadly
p6632
I7103
sVrather
p6633
I184
sVbreaking
p6634
I4207
sVoccasionally
p6635
I2609
sVacknowledging
p6636
I2610
sVsimplicity
p6637
I1570
sVemulate
p6638
I7104
sVanecdote
p6639
I7105
sVreflect
p6640
I7106
sVadventure
p6641
I7107
sVreplete
p6642
I4208
sVshort
p6643
I308
sVchiefly
p6644
I2212
sVprefers
p6645
I7108
sVdeparture
p6646
I3146
sVheight
p6647
I3470
sVshade
p6648
I2213
sVflowers
p6649
I7110
sVquarrels
p6650
I7111
sVBrunswick
p6651
I1762
sVavenue
p6652
I7112
sVairing
p6653
I2611
sVinquiries
p6654
I1571
sVstyle
p6655
I727
sVFull
p6656
I7113
sVMarch
p6657
I7114
sVsecresy
p6658
I7115
sVpray
p6659
I1572
sV<eos>Sixteen
p6660
I4935
sVprodigy
p6661
I4209
sVharmless
p6662
I4210
sVstrange
p6663
I1062
sV<eos>Anywhere
p6664
I7117
sVmight
p6665
I97
sValter
p6666
I2612
sVStokes
p6667
I3147
sVsomebody
p6668
I1612
sVsucking
p6669
I5413
sV<eos>Cole
p6670
I4211
sVinsensibility
p6671
I4212
sVPleasure
p6672
I5427
sVsmoothness
p6673
I3148
sVnephews
p6674
I2613
sVrepulsed
p6675
I7120
sVrefresh
p6676
I3149
sVinequality
p6677
I2614
sVresiding
p6678
I7121
sVfriendship
p6679
I766
sVpleasanter
p6680
I3150
sVweighs
p6681
I7122
sVweight
p6682
I2615
sVneedless
p6683
I4214
sVcolder
p6684
I7123
sVoppressed
p6685
I7124
sVsurprize
p6686
I555
sVexpect
p6687
I1004
sVundertake
p6688
I7125
sVMore
p6689
I4215
sVunexceptionable
p6690
I2616
sVwondered
p6691
I3151
sVcandour
p6692
I3152
sVhealth
p6693
I540
sVhill
p6694
I4216
sVdying
p6695
I7126
sVinduced
p6696
I1211
sV_has_
p6697
I4217
sVforgive
p6698
I2214
sV<eos>Miniatures
p6699
I7127
sV<eos>Forcing
p6700
I7128
sVtenderest
p6701
I4218
sVteach
p6702
I2617
sVthrown
p6703
I1005
sValluded
p6704
I7129
sV<eos>Can
p6705
I1763
sVprejudice
p6706
I4219
sVconsequence
p6707
I807
sVfallen
p6708
I2215
sVthrows
p6709
I7130
sVcolouring
p6710
I3752
sVfeed
p6711
I7131
sVdine
p6712
I1125
sVunhealthy
p6713
I4220
sVdistasteful
p6714
I7132
sVfeel
p6715
I240
sVrelate
p6716
I2618
sVfancy
p6717
I541
sVrevive
p6718
I7133
sVfeet
p6719
I7134
sVsympathy
p6720
I2619
sVenlarged
p6721
I7135
sVdefects
p6722
I7136
sVblank
p6723
I2620
sVpasses
p6724
I3153
sVstory
p6725
I1212
sV"
p6726
I68
sVleading
p6727
I1573
sVshilling
p6728
I4221
sVPleasant
p6729
I4222
sVstorm
p6730
I2870
sVrecovered
p6731
I1356
sVheadache
p6732
I3154
sVstatement
p6733
I7138
sVrelieved
p6734
I2875
sV;--"
p6735
I2621
sVcorrespondent
p6736
I3218
sVfidget
p6737
I7141
sVconvinced
p6738
I522
sVking
p6739
I7142
sVkind
p6740
I293
sV_joint_
p6741
I7143
sVdouble
p6742
I3155
sVinstruction
p6743
I7144
sVdispensed
p6744
I7145
sV<eos>Former
p6745
I7146
sVrisks
p6746
I3677
sVinsulted
p6747
I7147
sVstale
p6748
I7148
sVtongues
p6749
I7149
sVexert
p6750
I2622
sVsuspicious
p6751
I4224
sValike
p6752
I1949
sVnights
p6753
I3156
sVsandwiches
p6754
I7150
sVfinding
p6755
I923
sVpopulous
p6756
I4225
sVDifference
p6757
I7151
sVinterfered
p6758
I7152
sVinstigator
p6759
I7153
sVadded
p6760
I523
sVHave
p6761
I1421
sVreckon
p6762
I4226
sVinconvenience
p6763
I1422
sVreach
p6764
I2216
sVpique
p6765
I7154
sVenduring
p6766
I7155
sVnothing
p6767
I126
sVmeasured
p6768
I7156
sVachievement
p6769
I7157
sVstands
p6770
I6873
sVlevity
p6771
I7009
sVwindows
p6772
I1574
sVdissolved
p6773
I5672
sVhindrance
p6774
I7159
sVnotch
p6775
I7160
sV<eos>One
p6776
I701
sVvaunted
p6777
I7161
sVexpedients
p6778
I7162
sVfond
p6779
I542
sVFord
p6780
I1343
sVdeserts
p6781
I7164
sVsecuring
p6782
I3157
sVheedlessness
p6783
I6322
sV<eos>Say
p6784
I5717
sVbetray
p6785
I2623
sVshepherd
p6786
I7165
sVhis
p6787
I30
sVpublicity
p6788
I7166
sVgains
p6789
I7167
sVmeditations
p6790
I7168
sVsauciness
p6791
I7169
sVhid
p6792
I7170
sVlongest
p6793
I3158
sVBoth
p6794
I7171
sVinstinctive
p6795
I7172
sVhim
p6796
I39
sVgrievances
p6797
I7173
sVinsensibly
p6798
I7174
sVappeal
p6799
I4228
sVbearers
p6800
I7175
sV<eos>Heaven
p6801
I7176
sVactivity
p6802
I3159
sVprecaution
p6803
I4973
sVwrote
p6804
I960
sVconsciously
p6805
I7178
sVloveliness
p6806
I4229
sVart
p6807
I4230
sVachieved
p6808
I7179
sVintelligence
p6809
I1575
sVbare
p6810
I7180
sVare
p6811
I63
sV<eos>Ours
p6812
I7181
sVchambers
p6813
I7182
sVarm
p6814
I1006
sVdeclined
p6815
I1764
sVspirited
p6816
I4231
sVlearnt
p6817
I4232
sVforlorn
p6818
I7183
sVdegrading
p6819
I3160
sVvarious
p6820
I1950
sVnumerous
p6821
I4233
sVlamenting
p6822
I4234
sVcreating
p6823
I2218
sVBe
p6824
I7184
sVCould
p6825
I2624
sVsole
p6826
I2923
sVsucceed
p6827
I2219
sVopposition
p6828
I7185
sVbetrayed
p6829
I2220
sVc
p6830
I3161
sV<eos>Common
p6831
I7187
sVriddles
p6832
I4235
sVbecame
p6833
I873
sVbond
p6834
I7188
sVsauntering
p6835
I7189
sVflies
p6836
I7190
sVdistress
p6837
I874
sVreasons
p6838
I4236
sVsweet
p6839
I924
sVEnglish
p6840
I1656
sVsweep
p6841
I2625
sVimproper
p6842
I2626
sVregulated
p6843
I7191
sV_should_
p6844
I4239
sVvillage
p6845
I7192
sVrave
p6846
I7193
sV<eos>Perhaps
p6847
I1765
sVdecline
p6848
I7194
sVoverlook
p6849
I3162
sVdue
p6850
I835
sVwhom
p6851
I347
sVapprehensively
p6852
I7195
sVaffectionate
p6853
I2221
sVforeseeing
p6854
I7196
sVimprudence
p6855
I7197
sVprecision
p6856
I7198
sVsoftest
p6857
I7199
sVgoodly
p6858
I7200
sVplants
p6859
I7201
sVequivocation
p6860
I7202
sVboast
p6861
I4134
sVworkmen
p6862
I7203
sVfrozen
p6863
I3164
sVcivility
p6864
I1305
sVindignation
p6865
I2222
sVhealthy
p6866
I7204
sVDreadful
p6867
I4240
sVTis
p6868
I4241
sVdisappointing
p6869
I4242
sVlodged
p6870
I4243
sVrid
p6871
I2627
sValliances
p6872
I7205
sVtwofold
p6873
I7206
sVfate
p6874
I2223
sVlengths
p6875
I4244
sVdelicious
p6876
I7207
sVwidely
p6877
I7208
sVesteemed
p6878
I3165
sVadvise
p6879
I1766
sVdaughters
p6880
I2628
sVhigher
p6881
I1576
sVAbout
p6882
I4245
sVrestraint
p6883
I2952
sVIll
p6884
I7209
sVholidays
p6885
I7210
sVusually
p6886
I2365
sVflown
p6887
I7211
sVimpede
p6888
I5152
sVlower
p6889
I4246
sVundiscerned
p6890
I7212
sVsolemnity
p6891
I5956
sVAlmost
p6892
I7214
sVcheek
p6893
I7215
sVdared
p6894
I1578
sVExcellently
p6895
I7216
sVcheer
p6896
I3166
sVstating
p6897
I7217
sVgrievance
p6898
I7218
sVabilities
p6899
I3167
sVendeavour
p6900
I1306
sVRousing
p6901
I7219
sVscrupulous
p6902
I3168
sVintervals
p6903
I7220
sVquestions
p6904
I1307
sVretired
p6905
I3169
sVprofitable
p6906
I7221
sVobservant
p6907
I4247
sVexclusively
p6908
I7222
sVspeedily
p6909
I2630
sVinternal
p6910
I7223
sVProof
p6911
I7224
sVcomplaint
p6912
I1951
sV<eos>Composure
p6913
I7225
sVcomplains
p6914
I7226
sVadvocate
p6915
I3170
sVrecantation
p6916
I7227
sVentangled
p6917
I4248
sVclemency
p6918
I7228
sVnecessary
p6919
I584
sVdistrust
p6920
I4249
sVIndifferent
p6921
I7229
sVessential
p6922
I3171
sVengravings
p6923
I7230
sVpreserves
p6924
I6244
sVarrived
p6925
I925
sVdisinclined
p6926
I7232
sVunderstood
p6927
I908
sVselfishness
p6928
I4251
sVgradually
p6929
I1767
sV<eos>It
p6930
I103
sV<eos>Is
p6931
I1627
sVrefused
p6932
I1423
sVconsolation
p6933
I1768
sVSquare
p6934
I1769
sVhousekeeping
p6935
I7234
sVbars
p6936
I5748
sVfrightful
p6937
I4252
sVstricken
p6938
I6091
sVrange
p6939
I4253
sVmilitia
p6940
I4254
sVhatred
p6941
I7236
sVcomplimentary
p6942
I7237
sVyouthful
p6943
I7238
sVHawkins
p6944
I1063
sVunnoticed
p6945
I3172
sVdeafness
p6946
I7239
sVconquest
p6947
I4255
sVpersevering
p6948
I4256
sVartifice
p6949
I3872
sVdrifted
p6950
I7240
sVsports
p6951
I7241
sVimpressed
p6952
I4257
sVwhims
p6953
I3173
sVquestion
p6954
I594
sVfast
p6955
I1424
sVEvery
p6956
I1952
sVsignified
p6957
I6126
sV<eos>Contrary
p6958
I7243
sVperplexing
p6959
I7244
sVsolidity
p6960
I7245
sVHartfield
p6961
I171
sV<eos>Both
p6962
I7246
sVrepeatedly
p6963
I2631
sVupright
p6964
I1961
sVraising
p6965
I3174
sVtempered
p6966
I1579
sVgallantry
p6967
I1425
sVgratifying
p6968
I4258
sVfluctuations
p6969
I7247
sVfried
p6970
I4259
sVlandscapes
p6971
I7248
sVcalled
p6972
I459
sVfreak
p6973
I7249
sVavowedly
p6974
I7250
sV<eos>Though
p6975
I1953
sVassociates
p6976
I4260
sVsteeper
p6977
I7251
sVevils
p6978
I1580
sVemployment
p6979
I1593
sVpeace
p6980
I1581
sVsaffron
p6981
I7252
sVornamented
p6982
I7253
sVincome
p6983
I1954
sV_refused_
p6984
I7254
sVmock
p6985
I7255
sVnice
p6986
I1426
sVhelping
p6987
I7256
sVmeaning
p6988
I605
sVallowing
p6989
I2225
sVflirtation
p6990
I4262
sVsuffers
p6991
I7257
sVhappier
p6992
I1770
sVreproached
p6993
I7258
sVfagged
p6994
I4202
sVwe
p6995
I112
sVaccumulations
p6996
I7259
sVimpatient
p6997
I1582
sVreproaches
p6998
I7260
sVnarrative
p6999
I7261
sVtete
p7000
I2632
sVonce
p7001
I277
sVpervert
p7002
I7262
sVdispel
p7003
I7263
sVwindy
p7004
I4263
sVinfatuation
p7005
I3924
sV_invite_
p7006
I7265
sVobstinate
p7007
I7266
sVstable
p7008
I6272
sVabode
p7009
I7269
sVconfirmation
p7010
I3176
sVseized
p7011
I2633
sVflirted
p7012
I4835
sVforetell
p7013
I4265
sVdrinking
p7014
I3177
sVposture
p7015
I7270
sVelegancies
p7016
I3178
sVnotes
p7017
I7271
sVtenderness
p7018
I1955
sVdealt
p7019
I7272
sVmelodies
p7020
I7273
sVfriendliness
p7021
I7274
sVconcluded
p7022
I2634
sVsmaller
p7023
I3179
sV<eos>Heavens
p7024
I7275
sVsensation
p7025
I1956
sVfold
p7026
I6324
sVabominable
p7027
I2226
sVhourly
p7028
I7277
sVappeased
p7029
I7278
sVwaiting
p7030
I1064
sVcapital
p7031
I4266
sVRandall
p7032
I7279
sV_us_
p7033
I3180
sVexteriors
p7034
I7280
sVchose
p7035
I1427
sVdegree
p7036
I374
sVpushing
p7037
I4268
sVyoungest
p7038
I3181
sVdesired
p7039
I1213
sVexplore
p7040
I2635
sV<eos>Nobody
p7041
I1428
sVseparation
p7042
I3182
sVhouseroom
p7043
I7281
sVsettling
p7044
I2523
sVdistressed
p7045
I2636
sVlarger
p7046
I2227
sVleaving
p7047
I1583
sV<eos>say
p7048
I7283
sVspinet
p7049
I4421
sVsimpleton
p7050
I7284
sVdistresses
p7051
I7285
sVapple
p7052
I1771
sVforbid
p7053
I3183
sVpolitest
p7054
I5267
sVconfession
p7055
I2637
sVapt
p7056
I1772
sVhardy
p7057
I7286
sVperformer
p7058
I4141
sV,--
p7059
I556
sVdoubtfully
p7060
I7287
sVapply
p7061
I4269
sVuse
p7062
I557
sVfrom
p7063
I58
sVfigure
p7064
I1748
sVconsumption
p7065
I4271
sV&
p7066
I3184
sVHum
p7067
I7288
sVfew
p7068
I228
sVexamination
p7069
I4272
sVbitterly
p7070
I4273
sVacrostic
p7071
I7289
sV_one_
p7072
I2228
sVpossession
p7073
I2229
sVLane
p7074
I1957
sVclever
p7075
I651
sVinclined
p7076
I4274
sVmusician
p7077
I7290
sVheir
p7078
I4275
sVinfection
p7079
I3185
sVsore
p7080
I1584
sVfaultless
p7081
I7291
sVinclines
p7082
I7292
sVwomen
p7083
I875
sVtopic
p7084
I3578
sVsaddle
p7085
I7293
sVanywhere
p7086
I1308
sVproof
p7087
I801
sVindulgence
p7088
I1773
sVearnestness
p7089
I3187
sVdependence
p7090
I1585
sVvillain
p7091
I7295
sVcarrot
p7092
I7296
sVsomething
p7093
I230
sVperplexities
p7094
I4276
sVImprudent
p7095
I7297
sVsir
p7096
I362
sVunited
p7097
I1774
sVsit
p7098
I606
sVsix
p7099
I1958
sVparlour
p7100
I1429
sVstruggles
p7101
I7298
sVfortunate
p7102
I808
sVunquestionably
p7103
I7299
sVfidgeting
p7104
I7300
sVinstead
p7105
I836
sVstruggled
p7106
I7301
sVpanic
p7107
I4277
sVsin
p7108
I7302
sVmaternal
p7109
I7303
sVattend
p7110
I1586
sVdisinterestedness
p7111
I7304
sVportioning
p7112
I7305
sVhazard
p7113
I2638
sVstars
p7114
I7306
sVwrist
p7115
I7307
sVfootpath
p7116
I4278
sVreadiness
p7117
I4279
sVlight
p7118
I1126
sVinterrupted
p7119
I1587
sVdispositions
p7120
I7308
sVsupplication
p7121
I7309
sVhonestly
p7122
I3188
sVKings
p7123
I7310
sVqueernesses
p7124
I7311
sVbeauties
p7125
I3189
sVcoolly
p7126
I1775
sV"--
p7127
I876
sVdearest
p7128
I962
sVlooks
p7129
I679
sVindignantly
p7130
I4280
sVunchecked
p7131
I4033
sVsuperior
p7132
I382
sVpermanent
p7133
I7313
sVrestrain
p7134
I3190
sVchoose
p7135
I7314
sVcovered
p7136
I4281
sVbye
p7137
I1215
sVpractice
p7138
I4044
sVcommended
p7139
I7315
sVflew
p7140
I7316
sVinvitations
p7141
I2639
sVnegligent
p7142
I3191
sVCan
p7143
I2230
sVambition
p7144
I7317
sVaffections
p7145
I1309
sVworlds
p7146
I4282
sVImpropriety
p7147
I7318
sVenviable
p7148
I7319
sVtrimmed
p7149
I4283
sVComtesse
p7150
I7320
sVtray
p7151
I7321
sVrelated
p7152
I3192
sVdoubled
p7153
I6349
sVWhich
p7154
I4284
sVour
p7155
I231
sVindulged
p7156
I3194
sVout
p7157
I132
sVrespects
p7158
I2231
sVacknowledgment
p7159
I2558
sVsentiment
p7160
I1588
sVstrengthened
p7161
I3448
sVattentively
p7162
I3195
sVfricassee
p7163
I7323
sVThis
p7164
I628
sVNeptune
p7165
I7324
sVtyrannic
p7166
I7325
sVimpatience
p7167
I3196
sVovertake
p7168
I7326
sVfeasible
p7169
I4285
sVconversation
p7170
I524
sVhence
p7171
I1959
sV<eos>could
p7172
I7327
sVinsane
p7173
I7328
sVobscurity
p7174
I4286
sVplainly
p7175
I2232
sVhitherto
p7176
I1776
sVbonnet
p7177
I7329
sVproposing
p7178
I4287
sVumbrellas
p7179
I7330
sVFor
p7180
I1589
sVunknown
p7181
I4288
sVaccent
p7182
I2640
sVtheir
p7183
I105
sV<eos>Alas
p7184
I4289
sVboil
p7185
I7331
sVmisunderstood
p7186
I4290
sV<eos>when
p7187
I7425
sVSuccess
p7188
I7333
sVconsoling
p7189
I4291
sVdoomed
p7190
I7334
sVregards
p7191
I4292
sVtacitly
p7192
I7336
sVleniently
p7193
I7337
sV_world_
p7194
I7338
sVobjectionable
p7195
I4293
sVinfectious
p7196
I4294
sV_just_
p7197
I2641
sVrarity
p7198
I7339
sVhumours
p7199
I7340
sVindistinct
p7200
I7341
sVdusty
p7201
I7342
sVunaccountable
p7202
I3197
sVoutwardly
p7203
I4847
sV_Adair_
p7204
I7343
sVAstley
p7205
I2642
sVsincerity
p7206
I3198
sVmildest
p7207
I7344
sVafraid
p7208
I363
sVrout
p7209
I7345
sVAfter
p7210
I3199
sVboastful
p7211
I7346
sVsupplanted
p7212
I2643
sVswelling
p7213
I7268
sVwhich
p7214
I50
sVdivert
p7215
I7347
sV<eos>Take
p7216
I7348
sVcentre
p7217
I3200
sVwho
p7218
I104
sValarmed
p7219
I1960
sVclass
p7220
I2644
sVdiscordancies
p7221
I7349
sVdeny
p7222
I1777
sVrefreshing
p7223
I7350
sVlooked
p7224
I271
sVensued
p7225
I7351
sVunimpeded
p7226
I7352
sVchances
p7227
I2233
sVpleases
p7228
I2732
sVtidings
p7229
I4295
sVchapters
p7230
I7353
sVplanning
p7231
I7354
sVutter
p7232
I4296
sVchicken
p7233
I4022
sVpleased
p7234
I458
sVnearer
p7235
I1590
sVhighest
p7236
I1430
sVcandidates
p7237
I7357
sVlocal
p7238
I3201
sVcounsellor
p7239
I4297
sVindignant
p7240
I4298
sVwatching
p7241
I1778
sVones
p7242
I3202
sVwords
p7243
I439
sV<eos>Voices
p7244
I7358
sVended
p7245
I1659
sVmarried
p7246
I477
sVLieut
p7247
I7429
sVthrive
p7248
I7359
sVascertain
p7249
I3203
sVmarries
p7250
I2645
sVgenerations
p7251
I7360
sVtruer
p7252
I3122
sV<eos>Other
p7253
I7361
sVshedding
p7254
I7362
sV!--
p7255
I88
sVhumiliation
p7256
I2646
sVacquired
p7257
I3204
sVmerits
p7258
I2235
sVcloser
p7259
I7364
sVcloset
p7260
I7365
sVcarriage
p7261
I325
sVgenius
p7262
I4299
sVclosed
p7263
I1591
sV_must_
p7264
I3205
sVbought
p7265
I4300
sVweighing
p7266
I7366
sValphabetically
p7267
I7367
sVopening
p7268
I1007
sVjoy
p7269
I926
sVenigmas
p7270
I7368
sVembarrassment
p7271
I2647
sVjob
p7272
I3206
sVspoil
p7273
I7369
sVdeclining
p7274
I3207
sVcommands
p7275
I7370
sVdireful
p7276
I7371
sVsafely
p7277
I1065
sVgrounds
p7278
I1432
sVwall
p7279
I4301
sVwalk
p7280
I383
sVsubscribe
p7281
I7372
sV."--
p7282
I7032
sVtable
p7283
I700
sVpulmonary
p7284
I7374
sV.--
p7285
I41
sVwithdrawn
p7286
I3208
sVunhappiness
p7287
I7375
sVdecent
p7288
I7376
sV<eos>Henry
p7289
I7051
sVproudest
p7290
I7378
sVsufficient
p7291
I1433
sVremonstrances
p7292
I7379
sVimproved
p7293
I2648
sVrepetition
p7294
I2236
sVpresent
p7295
I265
sVeyelashes
p7296
I7380
sVunlike
p7297
I3209
sVfearful
p7298
I2237
sVNonsense
p7299
I2649
sVwill
p7300
I51
sVreadier
p7301
I7381
sVpersevered
p7302
I7382
sVwild
p7303
I3210
sVringing
p7304
I7383
sV<eos>Gone
p7305
I7384
sVapprehend
p7306
I3211
sVthus
p7307
I1217
sVdisapprove
p7308
I7385
sVencouragement
p7309
I878
sVcompanionableness
p7310
I7386
sVeducation
p7311
I1008
sVperhaps
p7312
I278
sV<eos>said
p7313
I558
sVprivileges
p7314
I7387
sVcross
p7315
I1592
sVunite
p7316
I4302
sVpropensity
p7317
I7388
sVlargest
p7318
I7389
sVinch
p7319
I3212
sVgets
p7320
I3213
sVprivileged
p7321
I4303
sVgrandeur
p7322
I4304
sVdifficult
p7323
I1779
sVslave
p7324
I3214
sV<eos>Depend
p7325
I1962
sV<eos>Young
p7326
I7390
sVconceived
p7327
I7391
sVdisagree
p7328
I3215
sVundesigned
p7329
I7439
sVcoaches
p7330
I7392
sVpedal
p7331
I7393
sVlaborious
p7332
I4823
sVappropriated
p7333
I4334
sVundertakes
p7334
I4305
sVapprove
p7335
I2013
sVscruples
p7336
I1310
sVWelch
p7337
I4306
sVundertaken
p7338
I7394
sVrealised
p7339
I7395
sVexcessive
p7340
I4307
sV_part_
p7341
I7396
sVcried
p7342
I428
sVfancying
p7343
I1311
sVYorkshire
p7344
I1963
sVrecollection
p7345
I1964
sV_presume_
p7346
I7397
sVhappiness
p7347
I326
sVdisturbance
p7348
I4308
sVconsole
p7349
I7398
sVsublime
p7350
I7399
sVsupply
p7351
I1434
sVsky
p7352
I7401
sVcapabilities
p7353
I7402
sVdiscuss
p7354
I7403
sVother
p7355
I127
sVadoption
p7356
I7404
sVattractive
p7357
I4309
sVusage
p7358
I7405
sVearnestly
p7359
I1218
sVsick
p7360
I1436
sV<eos>_Her_
p7361
I4310
sVknow
p7362
I96
sVpresume
p7363
I1965
sVpress
p7364
I7406
sV<eos>Two
p7365
I2650
sVsafest
p7366
I4311
sVperpetual
p7367
I2651
sVroundly
p7368
I7407
sVrepressed
p7369
I4312
sVwonders
p7370
I3219
sVexceed
p7371
I2652
sVbecause
p7372
I390
sVshabby
p7373
I4313
sV).
p7374
I3220
sVreprobation
p7375
I7408
sVopenness
p7376
I3221
sVneglecting
p7377
I3175
sVurbanity
p7378
I7409
sVlead
p7379
I1312
sVinstantaneous
p7380
I7410
sV<eos>Nay
p7381
I7411
sVheadaches
p7382
I7412
sVungraciously
p7383
I7413
sVconveyed
p7384
I1594
sVmotive
p7385
I1595
sVMill
p7386
I1486
sVincline
p7387
I3632
sVgetting
p7388
I1010
sVcolumn
p7389
I7414
sVcomplaisance
p7390
I4314
sVurged
p7391
I7415
sV<eos>--"
p7392
I3222
sVcarries
p7393
I7416
sVsanguinely
p7394
I7417
sVplaces
p7395
I1169
sVindividually
p7396
I7418
sV_precious_
p7397
I7419
sVown
p7398
I102
sVargumentative
p7399
I7420
sVowe
p7400
I4315
sVweather
p7401
I503
sVpromise
p7402
I837
sVsignificantly
p7403
I4316
sVtransfer
p7404
I4317
sV<eos>Always
p7405
I7421
sVUpon
p7406
I1128
sVpreferment
p7407
I7422
sVintention
p7408
I2238
sV<eos>Lord
p7409
I7423
sV<eos>Matrimony
p7410
I7424
sVBaly
p7411
I7332
sVbreeding
p7412
I7426
sV<eos>God
p7413
I7427
sVstooping
p7414
I7428
sVmade
p7415
I146
sVwhether
p7416
I364
sVTea
p7417
I5633
sVbelow
p7418
I3223
sVcake
p7419
I2239
sVstirring
p7420
I7432
sVeagerness
p7421
I1597
sVapothecary
p7422
I7433
sV--:
p7423
I7434
sVhorsewoman
p7424
I7435
sVFortunate
p7425
I7436
sV--,
p7426
I7437
sV--.
p7427
I4318
sV--(
p7428
I1219
sVgoodness
p7429
I1966
sVreflecting
p7430
I7438
sVcounteract
p7431
I3224
sV<eos>such
p7432
I3225
sVmutual
p7433
I3216
sVCaroline
p7434
I7440
sVincredible
p7435
I4319
sVboot
p7436
I3226
sVbook
p7437
I1435
sVbranch
p7438
I4320
sVyeomanry
p7439
I7441
sVgipsies
p7440
I2654
sVconclusion
p7441
I2655
sVtranquillised
p7442
I7442
sV<eos>Granted
p7443
I5515
sV--`
p7444
I2240
sVinsipid
p7445
I7443
sVranks
p7446
I7431
sVintentionally
p7447
I7445
sVrestoratives
p7448
I7446
sVsash
p7449
I7447
s.